Archive member included because of file (symbol)

/usr/local/CrossPack-AVR-20131216/lib/gcc/avr/4.8.1/../../../../avr/lib/avr51/libc.a(exit.o)
                              /usr/local/CrossPack-AVR-20131216/lib/gcc/avr/4.8.1/../../../../avr/lib/avr51/crtm128rfa1.o (exit)
contiki-avr-zigduino.a(process.o)
                              obj_avr-zigduino/componentManager.o (process_current)
contiki-avr-zigduino.a(elfloader.o)
                              obj_avr-zigduino/codebaseDeploymentSM.o (elfloader_autostart_processes)
contiki-avr-zigduino.a(memb.o)
                              obj_avr-zigduino/eventBus.o (memb_init)
contiki-avr-zigduino.a(list.o)
                              obj_avr-zigduino/codebaseManager.o (list_init)
contiki-avr-zigduino.a(etimer.o)
                              obj_avr-zigduino/timer_utils.o (etimer_set)
contiki-avr-zigduino.a(ctimer.o)
                              obj_avr-zigduino/smartmesh.o (ctimer_set)
contiki-avr-zigduino.a(random.o)
                              obj_avr-zigduino/comp_services.o (random_rand)
contiki-avr-zigduino.a(dn_ipmt.o)
                              obj_avr-zigduino/smartmesh.o (dn_ipmt_init)
contiki-avr-zigduino.a(dn_endianness.o)
                              contiki-avr-zigduino.a(dn_ipmt.o) (dn_write_uint16_t)
contiki-avr-zigduino.a(rs232.o)
                              obj_avr-zigduino/smartmesh.o (rs232_init)
contiki-avr-zigduino.a(cfs-eeprom.o)
                              obj_avr-zigduino/codebaseDeploymentSM.o (cfs_open)
contiki-avr-zigduino.a(eeprom.o)
                              contiki-avr-zigduino.a(cfs-eeprom.o) (eeprom_write)
contiki-avr-zigduino.a(sensors.o)
                              obj_avr-zigduino/looci.o (sensors_process)
contiki-avr-zigduino.a(contiki-main.o)
                              /usr/local/CrossPack-AVR-20131216/lib/gcc/avr/4.8.1/../../../../avr/lib/avr51/crtm128rfa1.o (main)
contiki-avr-zigduino.a(params.o)
                              contiki-avr-zigduino.a(contiki-main.o) (params_get_channel)
contiki-avr-zigduino.a(button-sensor.o)
                              contiki-avr-zigduino.a(sensors.o) (sensors_flags)
contiki-avr-zigduino.a(clock.o)
                              contiki-avr-zigduino.a(contiki-main.o) (clock_init)
contiki-avr-zigduino.a(watchdog.o)
                              contiki-avr-zigduino.a(contiki-main.o) (watchdog_init)
contiki-avr-zigduino.a(elfloader-avr.o)
                              obj_avr-zigduino/utils.o (elfloader_in_memory)
contiki-avr-zigduino.a(symtab-avr.o)
                              contiki-avr-zigduino.a(elfloader.o) (symtab_lookup)
contiki-avr-zigduino.a(rf230bb.o)
                              contiki-avr-zigduino.a(contiki-main.o) (rf230_get_channel)
contiki-avr-zigduino.a(halbb.o)
                              contiki-avr-zigduino.a(rf230bb.o) (hal_init)
contiki-avr-zigduino.a(rimeaddr.o)
                              contiki-avr-zigduino.a(contiki-main.o) (rimeaddr_set_node_addr)
contiki-avr-zigduino.a(nullmac.o)
                              contiki-avr-zigduino.a(contiki-main.o) (nullmac_driver)
contiki-avr-zigduino.a(sicslowmac.o)
                              contiki-avr-zigduino.a(contiki-main.o) (sicslowmac_driver)
contiki-avr-zigduino.a(autostart.o)
                              contiki-avr-zigduino.a(contiki-main.o) (autostart_start)
contiki-avr-zigduino.a(serial-line.o)
                              contiki-avr-zigduino.a(contiki-main.o) (serial_line_input_byte)
contiki-avr-zigduino.a(timer.o)
                              contiki-avr-zigduino.a(etimer.o) (timer_set)
contiki-avr-zigduino.a(rtimer.o)
                              contiki-avr-zigduino.a(contiki-main.o) (rtimer_init)
contiki-avr-zigduino.a(ringbuf.o)
                              contiki-avr-zigduino.a(serial-line.o) (ringbuf_init)
contiki-avr-zigduino.a(packetbuf.o)
                              contiki-avr-zigduino.a(sicslowmac.o) (packetbuf_hdrreduce)
contiki-avr-zigduino.a(queuebuf.o)
                              contiki-avr-zigduino.a(contiki-main.o) (queuebuf_init)
contiki-avr-zigduino.a(sicslowpan.o)
                              contiki-avr-zigduino.a(contiki-main.o) (sicslowpan_driver)
contiki-avr-zigduino.a(tcpip.o)
                              contiki-avr-zigduino.a(sicslowpan.o) (tcpip_set_outputfunc)
contiki-avr-zigduino.a(uip-ds6-route.o)
                              contiki-avr-zigduino.a(tcpip.o) (uip_ds6_route_nexthop)
contiki-avr-zigduino.a(uip-ds6-nbr.o)
                              contiki-avr-zigduino.a(tcpip.o) (uip_ds6_nbr_add)
contiki-avr-zigduino.a(uip-ds6.o)
                              contiki-avr-zigduino.a(tcpip.o) (uip_ds6_is_addr_onlink)
contiki-avr-zigduino.a(uip-nd6.o)
                              contiki-avr-zigduino.a(tcpip.o) (uip_nd6_ns_output)
contiki-avr-zigduino.a(uip-packetqueue)
                              contiki-avr-zigduino.a(uip-ds6-nbr.o) (uip_packetqueue_new)
contiki-avr-zigduino.a(uip-split.o)
                              contiki-avr-zigduino.a(tcpip.o) (uip_split_output)
contiki-avr-zigduino.a(uip6.o)
                              contiki-avr-zigduino.a(tcpip.o) (uip_ext_len)
contiki-avr-zigduino.a(dn_serial_mt.o)
                              contiki-avr-zigduino.a(dn_ipmt.o) (dn_serial_mt_init)
contiki-avr-zigduino.a(dn_hdlc.o)
                              contiki-avr-zigduino.a(dn_serial_mt.o) (dn_hdlc_init)
contiki-avr-zigduino.a(rtimer-arch.o)
                              contiki-avr-zigduino.a(rtimer.o) (rtimer_arch_init)
contiki-avr-zigduino.a(frame802154.o)
                              contiki-avr-zigduino.a(sicslowmac.o) (frame802154_hdrlen)
contiki-avr-zigduino.a(framer-802154.o)
                              contiki-avr-zigduino.a(sicslowpan.o) (framer_802154)
contiki-avr-zigduino.a(stimer.o)
                              contiki-avr-zigduino.a(tcpip.o) (stimer_set)
contiki-avr-zigduino.a(nbr-table.o)
                              contiki-avr-zigduino.a(uip-ds6-route.o) (nbr_table_register)
contiki-avr-zigduino.a(uip-icmp6.o)
                              contiki-avr-zigduino.a(uip6.o) (uip_icmp6_echo_request_input)
/usr/local/CrossPack-AVR-20131216/lib/gcc/avr/4.8.1/../../../../avr/lib/avr51/libc.a(malloc.o)
                              obj_avr-zigduino/componentManager.o (malloc)
/usr/local/CrossPack-AVR-20131216/lib/gcc/avr/4.8.1/../../../../avr/lib/avr51/libc.a(rand.o)
                              contiki-avr-zigduino.a(random.o) (rand)
/usr/local/CrossPack-AVR-20131216/lib/gcc/avr/4.8.1/../../../../avr/lib/avr51/libc.a(memcpy_P.o)
                              obj_avr-zigduino/hexCoding.o (memcpy_P)
/usr/local/CrossPack-AVR-20131216/lib/gcc/avr/4.8.1/../../../../avr/lib/avr51/libc.a(strcmp_P.o)
                              contiki-avr-zigduino.a(symtab-avr.o) (strcmp_P)
/usr/local/CrossPack-AVR-20131216/lib/gcc/avr/4.8.1/../../../../avr/lib/avr51/libc.a(memcmp.o)
                              obj_avr-zigduino/vector.o (memcmp)
/usr/local/CrossPack-AVR-20131216/lib/gcc/avr/4.8.1/../../../../avr/lib/avr51/libc.a(memcpy.o)
                              obj_avr-zigduino/componentManager.o (memcpy)
/usr/local/CrossPack-AVR-20131216/lib/gcc/avr/4.8.1/../../../../avr/lib/avr51/libc.a(memmove.o)
                              obj_avr-zigduino/mmem.o (memmove)
/usr/local/CrossPack-AVR-20131216/lib/gcc/avr/4.8.1/../../../../avr/lib/avr51/libc.a(memset.o)
                              obj_avr-zigduino/event.o (memset)
/usr/local/CrossPack-AVR-20131216/lib/gcc/avr/4.8.1/../../../../avr/lib/avr51/libc.a(strcmp.o)
                              contiki-avr-zigduino.a(elfloader.o) (strcmp)
/usr/local/CrossPack-AVR-20131216/lib/gcc/avr/4.8.1/../../../../avr/lib/avr51/libc.a(strncmp.o)
                              contiki-avr-zigduino.a(elfloader.o) (strncmp)
/usr/local/CrossPack-AVR-20131216/lib/gcc/avr/4.8.1/../../../../avr/lib/avr51/libc.a(iob.o)
                              contiki-avr-zigduino.a(rs232.o) (__iob)
/usr/local/CrossPack-AVR-20131216/lib/gcc/avr/4.8.1/../../../../avr/lib/avr51/libc.a(printf.o)
                              obj_avr-zigduino/debug.o (printf)
/usr/local/CrossPack-AVR-20131216/lib/gcc/avr/4.8.1/../../../../avr/lib/avr51/libc.a(printf_p.o)
                              loociCore.co (printf_P)
/usr/local/CrossPack-AVR-20131216/lib/gcc/avr/4.8.1/../../../../avr/lib/avr51/libc.a(puts.o)
                              obj_avr-zigduino/smartmesh.o (puts)
/usr/local/CrossPack-AVR-20131216/lib/gcc/avr/4.8.1/../../../../avr/lib/avr51/libc.a(vprintf.o)
                              obj_avr-zigduino/utils.o (vprintf)
/usr/local/CrossPack-AVR-20131216/lib/gcc/avr/4.8.1/../../../../avr/lib/avr51/libc.a(vfprintf_std.o)
                              /usr/local/CrossPack-AVR-20131216/lib/gcc/avr/4.8.1/../../../../avr/lib/avr51/libc.a(printf.o) (vfprintf)
/usr/local/CrossPack-AVR-20131216/lib/gcc/avr/4.8.1/../../../../avr/lib/avr51/libc.a(eerd_block_atmega128rfa1.o)
                              contiki-avr-zigduino.a(eeprom.o) (__eerd_block_m128rfa1)
/usr/local/CrossPack-AVR-20131216/lib/gcc/avr/4.8.1/../../../../avr/lib/avr51/libc.a(eerd_byte_atmega128rfa1.o)
                              contiki-avr-zigduino.a(params.o) (__eerd_byte_m128rfa1)
/usr/local/CrossPack-AVR-20131216/lib/gcc/avr/4.8.1/../../../../avr/lib/avr51/libc.a(eerd_word_atmega128rfa1.o)
                              contiki-avr-zigduino.a(params.o) (__eerd_word_m128rfa1)
/usr/local/CrossPack-AVR-20131216/lib/gcc/avr/4.8.1/../../../../avr/lib/avr51/libc.a(eewr_block_atmega128rfa1.o)
                              contiki-avr-zigduino.a(eeprom.o) (__eewr_block_m128rfa1)
/usr/local/CrossPack-AVR-20131216/lib/gcc/avr/4.8.1/../../../../avr/lib/avr51/libc.a(eewr_byte_atmega128rfa1.o)
                              contiki-avr-zigduino.a(params.o) (__eewr_byte_m128rfa1)
/usr/local/CrossPack-AVR-20131216/lib/gcc/avr/4.8.1/../../../../avr/lib/avr51/libc.a(eewr_word_atmega128rfa1.o)
                              contiki-avr-zigduino.a(params.o) (__eewr_word_m128rfa1)
/usr/local/CrossPack-AVR-20131216/lib/gcc/avr/4.8.1/../../../../avr/lib/avr51/libc.a(strnlen_P.o)
                              /usr/local/CrossPack-AVR-20131216/lib/gcc/avr/4.8.1/../../../../avr/lib/avr51/libc.a(vfprintf_std.o) (strnlen_P)
/usr/local/CrossPack-AVR-20131216/lib/gcc/avr/4.8.1/../../../../avr/lib/avr51/libc.a(strnlen.o)
                              /usr/local/CrossPack-AVR-20131216/lib/gcc/avr/4.8.1/../../../../avr/lib/avr51/libc.a(vfprintf_std.o) (strnlen)
/usr/local/CrossPack-AVR-20131216/lib/gcc/avr/4.8.1/../../../../avr/lib/avr51/libc.a(fputc.o)
                              /usr/local/CrossPack-AVR-20131216/lib/gcc/avr/4.8.1/../../../../avr/lib/avr51/libc.a(vfprintf_std.o) (fputc)
/usr/local/CrossPack-AVR-20131216/lib/gcc/avr/4.8.1/../../../../avr/lib/avr51/libc.a(ultoa_invert.o)
                              /usr/local/CrossPack-AVR-20131216/lib/gcc/avr/4.8.1/../../../../avr/lib/avr51/libc.a(vfprintf_std.o) (__ultoa_invert)
/usr/local/CrossPack-AVR-20131216/lib/gcc/avr/4.8.1/avr51/libgcc.a(_udivmodqi4.o)
                              obj_avr-zigduino/vector.o (__udivmodqi4)
/usr/local/CrossPack-AVR-20131216/lib/gcc/avr/4.8.1/avr51/libgcc.a(_udivmodhi4.o)
                              obj_avr-zigduino/comp_services.o (__udivmodhi4)
/usr/local/CrossPack-AVR-20131216/lib/gcc/avr/4.8.1/avr51/libgcc.a(_divmodhi4.o)
                              obj_avr-zigduino/vector.o (__divmodhi4)
/usr/local/CrossPack-AVR-20131216/lib/gcc/avr/4.8.1/avr51/libgcc.a(_udivmodsi4.o)
                              contiki-avr-zigduino.a(tcpip.o) (__udivmodsi4)
/usr/local/CrossPack-AVR-20131216/lib/gcc/avr/4.8.1/avr51/libgcc.a(_divmodsi4.o)
                              /usr/local/CrossPack-AVR-20131216/lib/gcc/avr/4.8.1/../../../../avr/lib/avr51/libc.a(rand.o) (__divmodsi4)
/usr/local/CrossPack-AVR-20131216/lib/gcc/avr/4.8.1/avr51/libgcc.a(_negsi2.o)
                              /usr/local/CrossPack-AVR-20131216/lib/gcc/avr/4.8.1/avr51/libgcc.a(_divmodsi4.o) (__negsi2)
/usr/local/CrossPack-AVR-20131216/lib/gcc/avr/4.8.1/avr51/libgcc.a(_exit.o)
                              /usr/local/CrossPack-AVR-20131216/lib/gcc/avr/4.8.1/../../../../avr/lib/avr51/libc.a(exit.o) (_exit)
/usr/local/CrossPack-AVR-20131216/lib/gcc/avr/4.8.1/avr51/libgcc.a(_tablejump.o)
                              obj_avr-zigduino/smartmesh.o (__tablejump2__)
/usr/local/CrossPack-AVR-20131216/lib/gcc/avr/4.8.1/avr51/libgcc.a(_copy_data.o)
                              loociCore.co (__do_copy_data)
/usr/local/CrossPack-AVR-20131216/lib/gcc/avr/4.8.1/avr51/libgcc.a(_clear_bss.o)
                              loociCore.co (__do_clear_bss)
/usr/local/CrossPack-AVR-20131216/lib/gcc/avr/4.8.1/avr51/libgcc.a(_bswapsi2.o)
                              contiki-avr-zigduino.a(uip6.o) (__bswapsi2)
/usr/local/CrossPack-AVR-20131216/lib/gcc/avr/4.8.1/avr51/libgcc.a(_muluhisi3.o)
                              /usr/local/CrossPack-AVR-20131216/lib/gcc/avr/4.8.1/../../../../avr/lib/avr51/libc.a(rand.o) (__muluhisi3)
/usr/local/CrossPack-AVR-20131216/lib/gcc/avr/4.8.1/avr51/libgcc.a(_mulshisi3.o)
                              /usr/local/CrossPack-AVR-20131216/lib/gcc/avr/4.8.1/../../../../avr/lib/avr51/libc.a(rand.o) (__mulohisi3)
/usr/local/CrossPack-AVR-20131216/lib/gcc/avr/4.8.1/avr51/libgcc.a(_prologue.o)
                              obj_avr-zigduino/tempSensor.o (__prologue_saves__)
/usr/local/CrossPack-AVR-20131216/lib/gcc/avr/4.8.1/avr51/libgcc.a(_epilogue.o)
                              obj_avr-zigduino/tempSensor.o (__epilogue_restores__)
/usr/local/CrossPack-AVR-20131216/lib/gcc/avr/4.8.1/avr51/libgcc.a(_umulhisi3.o)
                              /usr/local/CrossPack-AVR-20131216/lib/gcc/avr/4.8.1/avr51/libgcc.a(_muluhisi3.o) (__umulhisi3)

Allocating common symbols
Common symbol       size              file

fptr                0x1               obj_avr-zigduino/codebaseDeploymentSM.o
rf230_last_correlation
                    0x1               contiki-avr-zigduino.a(rf230bb.o)
rf230_last_rssi     0x1               contiki-avr-zigduino.a(rf230bb.o)
uip_ds6_if          0xd7              contiki-avr-zigduino.a(uip-ds6.o)
uip_ds6_netif_addr_list_offset
                    0x1               contiki-avr-zigduino.a(uip-ds6.o)
uip_len             0x2               contiki-avr-zigduino.a(uip6.o)
input_handler_1     0x2               contiki-avr-zigduino.a(rs232.o)
uip_ds6_addr_size   0x1               contiki-avr-zigduino.a(uip-ds6.o)
deployReply         0x10              loociCore.co
uip_sappdata        0x2               contiki-avr-zigduino.a(uip6.o)
packetbuf_addrs     0x20              contiki-avr-zigduino.a(packetbuf.o)
uip_acc32           0x4               contiki-avr-zigduino.a(uip6.o)
dn_hdlc_vars        0x8a              contiki-avr-zigduino.a(dn_hdlc.o)
uip_ds6_prefix_list
                    0x51              contiki-avr-zigduino.a(uip-ds6.o)
rimeaddr_node_addr  0x8               contiki-avr-zigduino.a(rimeaddr.o)
frag_sender         0x8               contiki-avr-zigduino.a(sicslowpan.o)
elfloader_unknown   0x1e              contiki-avr-zigduino.a(elfloader.o)
dn_ipmt_receive_notif
                    0x2               loociCore.co
uip_lladdr          0x8               contiki-avr-zigduino.a(uip6.o)
uip_aligned_buf     0x514             contiki-avr-zigduino.a(uip6.o)
uip_flags           0x1               contiki-avr-zigduino.a(uip6.o)
dn_ipmt_vars        0x8c              contiki-avr-zigduino.a(dn_ipmt.o)
__brkval            0x2               /usr/local/CrossPack-AVR-20131216/lib/gcc/avr/4.8.1/../../../../avr/lib/avr51/libc.a(malloc.o)
uip_ds6_timer_periodic
                    0x8               contiki-avr-zigduino.a(uip-ds6.o)
ledtimer            0x2               contiki-avr-zigduino.a(contiki-main.o)
rf230_smallest_rssi
                    0x1               contiki-avr-zigduino.a(rf230bb.o)
uip_next_hdr        0x2               contiki-avr-zigduino.a(uip6.o)
rf230_pending       0x1               contiki-avr-zigduino.a(rf230bb.o)
uip_udp_conn        0x2               contiki-avr-zigduino.a(uip6.o)
rf230_ccawait       0x1               contiki-avr-zigduino.a(rf230bb.o)
packetbuf_attrs     0x30              contiki-avr-zigduino.a(packetbuf.o)
rf230_txendwait     0x1               contiki-avr-zigduino.a(rf230bb.o)
elfloader_autostart_processes
                    0x10              contiki-avr-zigduino.a(elfloader.o)
uip_appdata         0x2               contiki-avr-zigduino.a(uip6.o)
uip_conn            0x2               contiki-avr-zigduino.a(uip6.o)
rxframe_tail        0x1               contiki-avr-zigduino.a(rf230bb.o)
tcpip_event         0x1               contiki-avr-zigduino.a(tcpip.o)
app_vars            0x12f             loociCore.co
uip_conns           0x58              contiki-avr-zigduino.a(uip6.o)
uip_icmp6_conns     0x4               contiki-avr-zigduino.a(uip6.o)
rxframe_head        0x1               contiki-avr-zigduino.a(rf230bb.o)
ldbuf               0x2               obj_avr-zigduino/codebaseDeploymentSM.o
rxframe             0x82              contiki-avr-zigduino.a(rf230bb.o)
rf230_wakewait      0x1               contiki-avr-zigduino.a(rf230bb.o)
sleepseconds        0x4               contiki-avr-zigduino.a(clock.o)
size                0x2               obj_avr-zigduino/codebaseDeploymentSM.o
seconds             0x4               contiki-avr-zigduino.a(clock.o)
chunk               0x1               obj_avr-zigduino/codebaseDeploymentSM.o
input_handler_0     0x2               contiki-avr-zigduino.a(rs232.o)
uip_listenports     0x6               contiki-avr-zigduino.a(uip6.o)
dn_serial_mt_vars   0x7               contiki-avr-zigduino.a(dn_serial_mt.o)
config_timeout      0x10              loociCore.co
uip_ds6_timer_rs    0x8               contiki-avr-zigduino.a(uip-ds6.o)
avail_memory        0x2               obj_avr-zigduino/mmem.o
sensors_flags       0x1               contiki-avr-zigduino.a(button-sensor.o)
serial_line_event_message
                    0x1               contiki-avr-zigduino.a(serial-line.o)
RF230_receive_on    0x1               contiki-avr-zigduino.a(rf230bb.o)
__flp               0x2               /usr/local/CrossPack-AVR-20131216/lib/gcc/avr/4.8.1/../../../../avr/lib/avr51/libc.a(malloc.o)
__iob               0x6               /usr/local/CrossPack-AVR-20131216/lib/gcc/avr/4.8.1/../../../../avr/lib/avr51/libc.a(iob.o)
tcpip_icmp6_event   0x1               contiki-avr-zigduino.a(tcpip.o)
sensors             0x2               contiki-avr-zigduino.a(button-sensor.o)
uip_slen            0x2               contiki-avr-zigduino.a(uip6.o)
rxpayload           0x94              loociCore.co
uip_udp_conns       0x4b              contiki-avr-zigduino.a(uip6.o)

Discarded input sections

 .bss           0x00000000        0x0 /usr/local/CrossPack-AVR-20131216/lib/gcc/avr/4.8.1/../../../../avr/lib/avr51/crtm128rfa1.o
 .text          0x00000000        0x0 /usr/local/CrossPack-AVR-20131216/lib/gcc/avr/4.8.1/../../../../avr/lib/avr51/libc.a(exit.o)
 .bss           0x00000000        0x0 /usr/local/CrossPack-AVR-20131216/lib/gcc/avr/4.8.1/../../../../avr/lib/avr51/libc.a(exit.o)
 .text          0x00000000        0x0 loociCore.co
 .bss           0x00000000        0x0 loociCore.co
 .text          0x00000000        0x0 obj_avr-zigduino/tempSensor.o
 .bss           0x00000000        0x0 obj_avr-zigduino/tempSensor.o
 .text          0x00000000        0x0 obj_avr-zigduino/image-init.o
 .bss           0x00000000        0x0 obj_avr-zigduino/image-init.o
 .text          0x00000000        0x0 obj_avr-zigduino/codebaseDeploymentSM.o
 .bss           0x00000000        0x0 obj_avr-zigduino/codebaseDeploymentSM.o
 .text          0x00000000        0x0 obj_avr-zigduino/debug.o
 .bss           0x00000000        0x0 obj_avr-zigduino/debug.o
 .text.lc_print
                0x00000000        0xe obj_avr-zigduino/debug.o
 .text.lc_printString
                0x00000000       0x66 obj_avr-zigduino/debug.o
 .text.lc_printShortArray
                0x00000000       0x6a obj_avr-zigduino/debug.o
 .text.lc_printEvent
                0x00000000       0x9a obj_avr-zigduino/debug.o
 .text.lc_printCoreEvent
                0x00000000       0x42 obj_avr-zigduino/debug.o
 .progmem.data.__c.2894
                0x00000000        0xa obj_avr-zigduino/debug.o
 .progmem.data.__c.2892
                0x00000000       0x15 obj_avr-zigduino/debug.o
 .progmem.data.__c.2887
                0x00000000       0x10 obj_avr-zigduino/debug.o
 .progmem.data.__c.2885
                0x00000000        0xb obj_avr-zigduino/debug.o
 .progmem.data.__c.2883
                0x00000000        0xa obj_avr-zigduino/debug.o
 .progmem.data.__c.2881
                0x00000000       0x45 obj_avr-zigduino/debug.o
 .progmem.data.__c.2863
                0x00000000        0x2 obj_avr-zigduino/debug.o
 .progmem.data.__c.2858
                0x00000000        0x4 obj_avr-zigduino/debug.o
 .progmem.data.__c.2839
                0x00000000        0x2 obj_avr-zigduino/debug.o
 .progmem.data.__c.2834
                0x00000000        0x4 obj_avr-zigduino/debug.o
 .text          0x00000000        0x0 obj_avr-zigduino/looci.o
 .bss           0x00000000        0x0 obj_avr-zigduino/looci.o
 .text          0x00000000        0x0 obj_avr-zigduino/codebaseManager.o
 .bss           0x00000000        0x0 obj_avr-zigduino/codebaseManager.o
 .text.lc_codebases_get_by_type
                0x00000000       0x48 obj_avr-zigduino/codebaseManager.o
 .text          0x00000000        0x0 obj_avr-zigduino/componentManager.o
 .bss           0x00000000        0x0 obj_avr-zigduino/componentManager.o
 .text.looci_cmpMan_get_cmpId_by_process
                0x00000000       0x12 obj_avr-zigduino/componentManager.o
 .text          0x00000000        0x0 obj_avr-zigduino/comp_services.o
 .bss           0x00000000        0x0 obj_avr-zigduino/comp_services.o
 .text._ma      0x00000000       0x3a obj_avr-zigduino/comp_services.o
 .text._mf      0x00000000       0x2c obj_avr-zigduino/comp_services.o
 .text          0x00000000        0x0 obj_avr-zigduino/event.o
 .bss           0x00000000        0x0 obj_avr-zigduino/event.o
 .text.ev_get_header_len
                0x00000000       0x20 obj_avr-zigduino/event.o
 .text.ev_get_header
                0x00000000       0x5e obj_avr-zigduino/event.o
 .text.ev_remove_header
                0x00000000       0x48 obj_avr-zigduino/event.o
 .text.ev_setHeaderByte
                0x00000000       0xdc obj_avr-zigduino/event.o
 .text.ev_setHeaderBit
                0x00000000       0x58 obj_avr-zigduino/event.o
 .text          0x00000000        0x0 obj_avr-zigduino/eventBus.o
 .bss           0x00000000        0x0 obj_avr-zigduino/eventBus.o
 .text          0x00000000        0x0 obj_avr-zigduino/triggermodule.o
 .bss           0x00000000        0x0 obj_avr-zigduino/triggermodule.o
 .text          0x00000000        0x0 obj_avr-zigduino/interceptor.o
 .bss           0x00000000        0x0 obj_avr-zigduino/interceptor.o
 .text.lc_int_notify
                0x00000000       0x3c obj_avr-zigduino/interceptor.o
 .text.lc_int_removeModule
                0x00000000        0xc obj_avr-zigduino/interceptor.o
 .text          0x00000000        0x0 obj_avr-zigduino/vector.o
 .bss           0x00000000        0x0 obj_avr-zigduino/vector.o
 .text.vector_block_reset
                0x00000000       0x20 obj_avr-zigduino/vector.o
 .text.vector_getIter
                0x00000000       0x30 obj_avr-zigduino/vector.o
 .text.vector_reset
                0x00000000       0x16 obj_avr-zigduino/vector.o
 .text          0x00000000        0x0 obj_avr-zigduino/mmem.o
 .bss           0x00000000        0x0 obj_avr-zigduino/mmem.o
 .text.mmem_freememory
                0x00000000        0xa obj_avr-zigduino/mmem.o
 .text          0x00000000        0x0 obj_avr-zigduino/utils.o
 .bss           0x00000000        0x0 obj_avr-zigduino/utils.o
 .text.memxor   0x00000000       0x1a obj_avr-zigduino/utils.o
 .text.mcmp     0x00000000        0x8 obj_avr-zigduino/utils.o
 .text.lc_utils_readWord
                0x00000000        0x8 obj_avr-zigduino/utils.o
 .text.divB     0x00000000        0x6 obj_avr-zigduino/utils.o
 .text.divS     0x00000000        0x8 obj_avr-zigduino/utils.o
 .text.memV     0x00000000       0x46 obj_avr-zigduino/utils.o
 .text.readADC  0x00000000       0x34 obj_avr-zigduino/utils.o
 .text          0x00000000        0x0 obj_avr-zigduino/hexCoding.o
 .bss           0x00000000        0x0 obj_avr-zigduino/hexCoding.o
 .text.xDec     0x00000000       0xa8 obj_avr-zigduino/hexCoding.o
 .text          0x00000000        0x0 obj_avr-zigduino/timer_utils.o
 .bss           0x00000000        0x0 obj_avr-zigduino/timer_utils.o
 .text.getET    0x00000000        0xa obj_avr-zigduino/timer_utils.o
 .text.relET    0x00000000        0x6 obj_avr-zigduino/timer_utils.o
 .text          0x00000000        0x0 obj_avr-zigduino/keyList.o
 .bss           0x00000000        0x0 obj_avr-zigduino/keyList.o
 .text.klIni    0x00000000       0x18 obj_avr-zigduino/keyList.o
 .text.klAdd    0x00000000       0x2c obj_avr-zigduino/keyList.o
 .text.klRem    0x00000000       0x1e obj_avr-zigduino/keyList.o
 .text.klGet    0x00000000       0x2a obj_avr-zigduino/keyList.o
 .text.klGetAll
                0x00000000       0x30 obj_avr-zigduino/keyList.o
 .text          0x00000000        0x0 obj_avr-zigduino/networking.o
 .bss           0x00000000        0x0 obj_avr-zigduino/networking.o
 .text          0x00000000        0x0 obj_avr-zigduino/peers.o
 .bss           0x00000000        0x0 obj_avr-zigduino/peers.o
 .text.peer_remove
                0x00000000       0x48 obj_avr-zigduino/peers.o
 .text          0x00000000        0x0 obj_avr-zigduino/smartmesh.o
 .bss           0x00000000        0x0 obj_avr-zigduino/smartmesh.o
 .text.api_reset_reply
                0x00000000       0x20 obj_avr-zigduino/smartmesh.o
 .text.test_transmit
                0x00000000        0x2 obj_avr-zigduino/smartmesh.o
 .text.fsm_setCallback
                0x00000000        0xa obj_avr-zigduino/smartmesh.o
 .text.api_reset
                0x00000000       0x22 obj_avr-zigduino/smartmesh.o
 .data.bcastaddr
                0x00000000       0x10 obj_avr-zigduino/smartmesh.o
 .data.nodeaddr
                0x00000000       0x10 obj_avr-zigduino/smartmesh.o
 .text          0x00000000        0x0 obj_avr-zigduino/runtime_control_local.o
 .bss           0x00000000        0x0 obj_avr-zigduino/runtime_control_local.o
 .text          0x00000000        0x0 obj_avr-zigduino/introspection_local.o
 .bss           0x00000000        0x0 obj_avr-zigduino/introspection_local.o
 .text          0x00000000        0x0 obj_avr-zigduino/reconfigurationEngine.o
 .bss           0x00000000        0x0 obj_avr-zigduino/reconfigurationEngine.o
 .text          0x00000000        0x0 contiki-avr-zigduino.a(process.o)
 .bss           0x00000000        0x0 contiki-avr-zigduino.a(process.o)
 .text.process_nevents
                0x00000000       0x10 contiki-avr-zigduino.a(process.o)
 .text.process_is_running
                0x00000000       0x14 contiki-avr-zigduino.a(process.o)
 .text          0x00000000        0x0 contiki-avr-zigduino.a(elfloader.o)
 .bss           0x00000000        0x0 contiki-avr-zigduino.a(elfloader.o)
 .text.elfloader_init
                0x00000000       0x12 contiki-avr-zigduino.a(elfloader.o)
 .text          0x00000000        0x0 contiki-avr-zigduino.a(memb.o)
 .bss           0x00000000        0x0 contiki-avr-zigduino.a(memb.o)
 .text          0x00000000        0x0 contiki-avr-zigduino.a(list.o)
 .bss           0x00000000        0x0 contiki-avr-zigduino.a(list.o)
 .text.list_copy
                0x00000000        0xe contiki-avr-zigduino.a(list.o)
 .text.list_chop
                0x00000000       0x3c contiki-avr-zigduino.a(list.o)
 .text.list_pop
                0x00000000       0x18 contiki-avr-zigduino.a(list.o)
 .text          0x00000000        0x0 contiki-avr-zigduino.a(etimer.o)
 .bss           0x00000000        0x0 contiki-avr-zigduino.a(etimer.o)
 .text.etimer_expiration_time
                0x00000000       0x10 contiki-avr-zigduino.a(etimer.o)
 .text.etimer_start_time
                0x00000000        0x8 contiki-avr-zigduino.a(etimer.o)
 .text.etimer_next_expiration_time
                0x00000000       0x1c contiki-avr-zigduino.a(etimer.o)
 .text          0x00000000        0x0 contiki-avr-zigduino.a(ctimer.o)
 .bss           0x00000000        0x0 contiki-avr-zigduino.a(ctimer.o)
 .text.ctimer_restart
                0x00000000       0x54 contiki-avr-zigduino.a(ctimer.o)
 .text.ctimer_expired
                0x00000000       0x42 contiki-avr-zigduino.a(ctimer.o)
 .text          0x00000000        0x0 contiki-avr-zigduino.a(random.o)
 .bss           0x00000000        0x0 contiki-avr-zigduino.a(random.o)
 .text          0x00000000        0x0 contiki-avr-zigduino.a(dn_ipmt.o)
 .bss           0x00000000        0x0 contiki-avr-zigduino.a(dn_ipmt.o)
 .text.dn_ipmt_setParameter_macAddress_reply
                0x00000000       0x40 contiki-avr-zigduino.a(dn_ipmt.o)
 .text.dn_ipmt_setParameter_joinKey_reply
                0x00000000       0x40 contiki-avr-zigduino.a(dn_ipmt.o)
 .text.dn_ipmt_setParameter_networkId_reply
                0x00000000       0x40 contiki-avr-zigduino.a(dn_ipmt.o)
 .text.dn_ipmt_setParameter_txPower_reply
                0x00000000       0x40 contiki-avr-zigduino.a(dn_ipmt.o)
 .text.dn_ipmt_setParameter_joinDutyCycle_reply
                0x00000000       0x40 contiki-avr-zigduino.a(dn_ipmt.o)
 .text.dn_ipmt_setParameter_eventMask_reply
                0x00000000       0x40 contiki-avr-zigduino.a(dn_ipmt.o)
 .text.dn_ipmt_setParameter_OTAPLockout_reply
                0x00000000       0x40 contiki-avr-zigduino.a(dn_ipmt.o)
 .text.dn_ipmt_setParameter_routingMode_reply
                0x00000000       0x40 contiki-avr-zigduino.a(dn_ipmt.o)
 .text.dn_ipmt_setParameter_powerSrcInfo_reply
                0x00000000       0x40 contiki-avr-zigduino.a(dn_ipmt.o)
 .text.dn_ipmt_setParameter_autoJoin_reply
                0x00000000       0x40 contiki-avr-zigduino.a(dn_ipmt.o)
 .text.dn_ipmt_getParameter_txPower_reply
                0x00000000       0x4c contiki-avr-zigduino.a(dn_ipmt.o)
 .text.dn_ipmt_getParameter_joinDutyCycle_reply
                0x00000000       0x4c contiki-avr-zigduino.a(dn_ipmt.o)
 .text.dn_ipmt_getParameter_OTAPLockout_reply
                0x00000000       0x54 contiki-avr-zigduino.a(dn_ipmt.o)
 .text.dn_ipmt_getParameter_routingMode_reply
                0x00000000       0x54 contiki-avr-zigduino.a(dn_ipmt.o)
 .text.dn_ipmt_getParameter_autoJoin_reply
                0x00000000       0x54 contiki-avr-zigduino.a(dn_ipmt.o)
 .text.dn_ipmt_disconnect_reply
                0x00000000       0x2c contiki-avr-zigduino.a(dn_ipmt.o)
 .text.dn_ipmt_reset_reply
                0x00000000       0x2c contiki-avr-zigduino.a(dn_ipmt.o)
 .text.dn_ipmt_lowPowerSleep_reply
                0x00000000       0x2c contiki-avr-zigduino.a(dn_ipmt.o)
 .text.dn_ipmt_testRadioRx_reply
                0x00000000       0x2c contiki-avr-zigduino.a(dn_ipmt.o)
 .text.dn_ipmt_clearNV_reply
                0x00000000       0x2c contiki-avr-zigduino.a(dn_ipmt.o)
 .text.dn_ipmt_search_reply
                0x00000000       0x2c contiki-avr-zigduino.a(dn_ipmt.o)
 .text.dn_ipmt_testRadioTxExt_reply
                0x00000000       0x2c contiki-avr-zigduino.a(dn_ipmt.o)
 .text.dn_ipmt_zeroize_reply
                0x00000000       0x2c contiki-avr-zigduino.a(dn_ipmt.o)
 .text.dn_ipmt_getParameter_macAddress_reply
                0x00000000       0x54 contiki-avr-zigduino.a(dn_ipmt.o)
 .text.dn_ipmt_getParameter_networkId_reply
                0x00000000       0x56 contiki-avr-zigduino.a(dn_ipmt.o)
 .text.dn_ipmt_getParameter_moteInfo_reply
                0x00000000       0x98 contiki-avr-zigduino.a(dn_ipmt.o)
 .text.dn_ipmt_getParameter_netInfo_reply
                0x00000000       0x94 contiki-avr-zigduino.a(dn_ipmt.o)
 .text.dn_ipmt_getParameter_testRadioRxStats_reply
                0x00000000       0x74 contiki-avr-zigduino.a(dn_ipmt.o)
 .text.dn_ipmt_getParameter_moteId_reply
                0x00000000       0x56 contiki-avr-zigduino.a(dn_ipmt.o)
 .text.dn_ipmt_getParameter_powerSrcInfo_reply
                0x00000000       0xee contiki-avr-zigduino.a(dn_ipmt.o)
 .text.dn_ipmt_socketInfo_reply
                0x00000000       0x68 contiki-avr-zigduino.a(dn_ipmt.o)
 .text.dn_ipmt_getParameter_eventMask_reply
                0x00000000       0x56 contiki-avr-zigduino.a(dn_ipmt.o)
 .text.dn_ipmt_getParameter_time_reply
                0x00000000       0xa8 contiki-avr-zigduino.a(dn_ipmt.o)
 .text.dn_ipmt_getParameter_charge_reply
                0x00000000       0x7e contiki-avr-zigduino.a(dn_ipmt.o)
 .text.dn_ipmt_setParameter_macAddress
                0x00000000       0x5e contiki-avr-zigduino.a(dn_ipmt.o)
 .text.dn_ipmt_setParameter_joinKey
                0x00000000       0x60 contiki-avr-zigduino.a(dn_ipmt.o)
 .text.dn_ipmt_setParameter_networkId
                0x00000000       0x5a contiki-avr-zigduino.a(dn_ipmt.o)
 .text.dn_ipmt_setParameter_txPower
                0x00000000       0x54 contiki-avr-zigduino.a(dn_ipmt.o)
 .text.dn_ipmt_setParameter_joinDutyCycle
                0x00000000       0x54 contiki-avr-zigduino.a(dn_ipmt.o)
 .text.dn_ipmt_setParameter_eventMask
                0x00000000       0x5c contiki-avr-zigduino.a(dn_ipmt.o)
 .text.dn_ipmt_setParameter_OTAPLockout
                0x00000000       0x54 contiki-avr-zigduino.a(dn_ipmt.o)
 .text.dn_ipmt_setParameter_routingMode
                0x00000000       0x54 contiki-avr-zigduino.a(dn_ipmt.o)
 .text.dn_ipmt_setParameter_powerSrcInfo
                0x00000000       0xcc contiki-avr-zigduino.a(dn_ipmt.o)
 .text.dn_ipmt_setParameter_autoJoin
                0x00000000       0x54 contiki-avr-zigduino.a(dn_ipmt.o)
 .text.dn_ipmt_getParameter_macAddress
                0x00000000       0x50 contiki-avr-zigduino.a(dn_ipmt.o)
 .text.dn_ipmt_getParameter_networkId
                0x00000000       0x4e contiki-avr-zigduino.a(dn_ipmt.o)
 .text.dn_ipmt_getParameter_txPower
                0x00000000       0x4e contiki-avr-zigduino.a(dn_ipmt.o)
 .text.dn_ipmt_getParameter_joinDutyCycle
                0x00000000       0x4e contiki-avr-zigduino.a(dn_ipmt.o)
 .text.dn_ipmt_getParameter_eventMask
                0x00000000       0x4e contiki-avr-zigduino.a(dn_ipmt.o)
 .text.dn_ipmt_getParameter_moteInfo
                0x00000000       0x4e contiki-avr-zigduino.a(dn_ipmt.o)
 .text.dn_ipmt_getParameter_netInfo
                0x00000000       0x4e contiki-avr-zigduino.a(dn_ipmt.o)
 .text.dn_ipmt_getParameter_time
                0x00000000       0x4e contiki-avr-zigduino.a(dn_ipmt.o)
 .text.dn_ipmt_getParameter_charge
                0x00000000       0x4e contiki-avr-zigduino.a(dn_ipmt.o)
 .text.dn_ipmt_getParameter_testRadioRxStats
                0x00000000       0x4e contiki-avr-zigduino.a(dn_ipmt.o)
 .text.dn_ipmt_getParameter_OTAPLockout
                0x00000000       0x4e contiki-avr-zigduino.a(dn_ipmt.o)
 .text.dn_ipmt_getParameter_moteId
                0x00000000       0x4e contiki-avr-zigduino.a(dn_ipmt.o)
 .text.dn_ipmt_getParameter_routingMode
                0x00000000       0x4e contiki-avr-zigduino.a(dn_ipmt.o)
 .text.dn_ipmt_getParameter_powerSrcInfo
                0x00000000       0x4e contiki-avr-zigduino.a(dn_ipmt.o)
 .text.dn_ipmt_getParameter_autoJoin
                0x00000000       0x4e contiki-avr-zigduino.a(dn_ipmt.o)
 .text.dn_ipmt_disconnect
                0x00000000       0x44 contiki-avr-zigduino.a(dn_ipmt.o)
 .text.dn_ipmt_reset
                0x00000000       0x44 contiki-avr-zigduino.a(dn_ipmt.o)
 .text.dn_ipmt_lowPowerSleep
                0x00000000       0x44 contiki-avr-zigduino.a(dn_ipmt.o)
 .text.dn_ipmt_testRadioRx
                0x00000000       0x6c contiki-avr-zigduino.a(dn_ipmt.o)
 .text.dn_ipmt_clearNV
                0x00000000       0x44 contiki-avr-zigduino.a(dn_ipmt.o)
 .text.dn_ipmt_search
                0x00000000       0x44 contiki-avr-zigduino.a(dn_ipmt.o)
 .text.dn_ipmt_testRadioTxExt
                0x00000000      0x14e contiki-avr-zigduino.a(dn_ipmt.o)
 .text.dn_ipmt_zeroize
                0x00000000       0x44 contiki-avr-zigduino.a(dn_ipmt.o)
 .text.dn_ipmt_socketInfo
                0x00000000       0x48 contiki-avr-zigduino.a(dn_ipmt.o)
 .text          0x00000000        0x0 contiki-avr-zigduino.a(dn_endianness.o)
 .bss           0x00000000        0x0 contiki-avr-zigduino.a(dn_endianness.o)
 .text          0x00000000        0x0 contiki-avr-zigduino.a(rs232.o)
 .bss           0x00000000        0x0 contiki-avr-zigduino.a(rs232.o)
 .text.rs232_print
                0x00000000       0x32 contiki-avr-zigduino.a(rs232.o)
 .text.slip_arch_writeb
                0x00000000        0xa contiki-avr-zigduino.a(rs232.o)
 .text          0x00000000        0x0 contiki-avr-zigduino.a(cfs-eeprom.o)
 .bss           0x00000000        0x0 contiki-avr-zigduino.a(cfs-eeprom.o)
 .text.cfs_opendir
                0x00000000        0x6 contiki-avr-zigduino.a(cfs-eeprom.o)
 .text.cfs_readdir
                0x00000000        0x6 contiki-avr-zigduino.a(cfs-eeprom.o)
 .text.cfs_closedir
                0x00000000        0x2 contiki-avr-zigduino.a(cfs-eeprom.o)
 .text          0x00000000        0x0 contiki-avr-zigduino.a(eeprom.o)
 .bss           0x00000000        0x0 contiki-avr-zigduino.a(eeprom.o)
 .text          0x00000000        0x0 contiki-avr-zigduino.a(sensors.o)
 .bss           0x00000000        0x0 contiki-avr-zigduino.a(sensors.o)
 .text.sensors_first
                0x00000000        0xa contiki-avr-zigduino.a(sensors.o)
 .text.sensors_next
                0x00000000       0x34 contiki-avr-zigduino.a(sensors.o)
 .text.sensors_changed
                0x00000000       0x3a contiki-avr-zigduino.a(sensors.o)
 .text.sensors_find
                0x00000000       0x66 contiki-avr-zigduino.a(sensors.o)
 .text          0x00000000        0x0 contiki-avr-zigduino.a(contiki-main.o)
 .bss           0x00000000        0x0 contiki-avr-zigduino.a(contiki-main.o)
 .text.log_message
                0x00000000       0x22 contiki-avr-zigduino.a(contiki-main.o)
 .progmem.data.__c.5450
                0x00000000        0x6 contiki-avr-zigduino.a(contiki-main.o)
 .text          0x00000000        0x0 contiki-avr-zigduino.a(params.o)
 .bss           0x00000000        0x0 contiki-avr-zigduino.a(params.o)
 .text          0x00000000        0x0 contiki-avr-zigduino.a(button-sensor.o)
 .bss           0x00000000        0x0 contiki-avr-zigduino.a(button-sensor.o)
 .text.value    0x00000000        0x6 contiki-avr-zigduino.a(button-sensor.o)
 .text.configure
                0x00000000       0x12 contiki-avr-zigduino.a(button-sensor.o)
 .text.status   0x00000000       0x14 contiki-avr-zigduino.a(button-sensor.o)
 .rodata.str1.1
                0x00000000        0x7 contiki-avr-zigduino.a(button-sensor.o)
 .rodata.button_sensor
                0x00000000        0x8 contiki-avr-zigduino.a(button-sensor.o)
 .text          0x00000000        0x0 contiki-avr-zigduino.a(clock.o)
 .bss           0x00000000        0x0 contiki-avr-zigduino.a(clock.o)
 .text.clock_set_seconds
                0x00000000       0x12 contiki-avr-zigduino.a(clock.o)
 .text.clock_wait
                0x00000000       0x20 contiki-avr-zigduino.a(clock.o)
 .text.clock_delay_usec
                0x00000000       0x12 contiki-avr-zigduino.a(clock.o)
 .text.clock_adjust_ticks
                0x00000000       0xb2 contiki-avr-zigduino.a(clock.o)
 .text          0x00000000        0x0 contiki-avr-zigduino.a(watchdog.o)
 .bss           0x00000000        0x0 contiki-avr-zigduino.a(watchdog.o)
 .text.watchdog_stop
                0x00000000       0x12 contiki-avr-zigduino.a(watchdog.o)
 .text.watchdog_reboot
                0x00000000       0x1a contiki-avr-zigduino.a(watchdog.o)
 .text          0x00000000        0x0 contiki-avr-zigduino.a(elfloader-avr.o)
 .bss           0x00000000        0x0 contiki-avr-zigduino.a(elfloader-avr.o)
 .text          0x00000000        0x0 contiki-avr-zigduino.a(symtab-avr.o)
 .bss           0x00000000        0x0 contiki-avr-zigduino.a(symtab-avr.o)
 .text          0x00000000        0x0 contiki-avr-zigduino.a(rf230bb.o)
 .bss           0x00000000        0x0 contiki-avr-zigduino.a(rf230bb.o)
 .text.rf230_set_promiscuous_mode
                0x00000000        0x6 contiki-avr-zigduino.a(rf230bb.o)
 .text.rf230_is_ready_to_send
                0x00000000       0x14 contiki-avr-zigduino.a(rf230bb.o)
 .text.rf230_setpendingbit
                0x00000000       0x10 contiki-avr-zigduino.a(rf230bb.o)
 .text.rf230_listen_channel
                0x00000000        0xc contiki-avr-zigduino.a(rf230bb.o)
 .text.rf230_get_raw_rssi
                0x00000000       0x48 contiki-avr-zigduino.a(rf230bb.o)
 .bss.is_promiscuous
                0x00000000        0x1 contiki-avr-zigduino.a(rf230bb.o)
 .text          0x00000000        0x0 contiki-avr-zigduino.a(halbb.o)
 .bss           0x00000000        0x0 contiki-avr-zigduino.a(halbb.o)
 .text          0x00000000        0x0 contiki-avr-zigduino.a(rimeaddr.o)
 .bss           0x00000000        0x0 contiki-avr-zigduino.a(rimeaddr.o)
 .text          0x00000000        0x0 contiki-avr-zigduino.a(nullmac.o)
 .bss           0x00000000        0x0 contiki-avr-zigduino.a(nullmac.o)
 .text          0x00000000        0x0 contiki-avr-zigduino.a(sicslowmac.o)
 .bss           0x00000000        0x0 contiki-avr-zigduino.a(sicslowmac.o)
 .text          0x00000000        0x0 contiki-avr-zigduino.a(autostart.o)
 .bss           0x00000000        0x0 contiki-avr-zigduino.a(autostart.o)
 .text.autostart_exit
                0x00000000       0x1a contiki-avr-zigduino.a(autostart.o)
 .text          0x00000000        0x0 contiki-avr-zigduino.a(serial-line.o)
 .bss           0x00000000        0x0 contiki-avr-zigduino.a(serial-line.o)
 .text.serial_line_init
                0x00000000       0x1c contiki-avr-zigduino.a(serial-line.o)
 .bss.rxbuf_data
                0x00000000       0x80 contiki-avr-zigduino.a(serial-line.o)
 .text          0x00000000        0x0 contiki-avr-zigduino.a(timer.o)
 .bss           0x00000000        0x0 contiki-avr-zigduino.a(timer.o)
 .text.timer_remaining
                0x00000000       0x24 contiki-avr-zigduino.a(timer.o)
 .text          0x00000000        0x0 contiki-avr-zigduino.a(rtimer.o)
 .bss           0x00000000        0x0 contiki-avr-zigduino.a(rtimer.o)
 .text.rtimer_set
                0x00000000       0x36 contiki-avr-zigduino.a(rtimer.o)
 .text          0x00000000        0x0 contiki-avr-zigduino.a(ringbuf.o)
 .bss           0x00000000        0x0 contiki-avr-zigduino.a(ringbuf.o)
 .text.ringbuf_init
                0x00000000       0x10 contiki-avr-zigduino.a(ringbuf.o)
 .text.ringbuf_size
                0x00000000        0xa contiki-avr-zigduino.a(ringbuf.o)
 .text.ringbuf_elements
                0x00000000       0x16 contiki-avr-zigduino.a(ringbuf.o)
 .text          0x00000000        0x0 contiki-avr-zigduino.a(packetbuf.o)
 .bss           0x00000000        0x0 contiki-avr-zigduino.a(packetbuf.o)
 .text.packetbuf_clear_hdr
                0x00000000        0x8 contiki-avr-zigduino.a(packetbuf.o)
 .text.packetbuf_hdr_remove
                0x00000000        0xc contiki-avr-zigduino.a(packetbuf.o)
 .text.packetbuf_compact
                0x00000000       0x60 contiki-avr-zigduino.a(packetbuf.o)
 .text.packetbuf_hdrlen
                0x00000000        0xa contiki-avr-zigduino.a(packetbuf.o)
 .text.packetbuf_reference
                0x00000000       0x2a contiki-avr-zigduino.a(packetbuf.o)
 .text          0x00000000        0x0 contiki-avr-zigduino.a(queuebuf.o)
 .bss           0x00000000        0x0 contiki-avr-zigduino.a(queuebuf.o)
 .text.queuebuf_update_attr_from_packetbuf
                0x00000000       0x16 contiki-avr-zigduino.a(queuebuf.o)
 .text.queuebuf_dataptr
                0x00000000       0x3a contiki-avr-zigduino.a(queuebuf.o)
 .text.queuebuf_datalen
                0x00000000        0xc contiki-avr-zigduino.a(queuebuf.o)
 .text.queuebuf_addr
                0x00000000       0x18 contiki-avr-zigduino.a(queuebuf.o)
 .text.queuebuf_attr
                0x00000000       0x1c contiki-avr-zigduino.a(queuebuf.o)
 .text.queuebuf_debug_print
                0x00000000        0x2 contiki-avr-zigduino.a(queuebuf.o)
 .text          0x00000000        0x0 contiki-avr-zigduino.a(sicslowpan.o)
 .bss           0x00000000        0x0 contiki-avr-zigduino.a(sicslowpan.o)
 .text.rime_sniffer_add
                0x00000000        0xa contiki-avr-zigduino.a(sicslowpan.o)
 .text.rime_sniffer_remove
                0x00000000        0xa contiki-avr-zigduino.a(sicslowpan.o)
 .text          0x00000000        0x0 contiki-avr-zigduino.a(tcpip.o)
 .bss           0x00000000        0x0 contiki-avr-zigduino.a(tcpip.o)
 .text.tcp_unlisten
                0x00000000       0x40 contiki-avr-zigduino.a(tcpip.o)
 .text.tcp_listen
                0x00000000       0x3c contiki-avr-zigduino.a(tcpip.o)
 .text.tcp_attach
                0x00000000       0x14 contiki-avr-zigduino.a(tcpip.o)
 .text.udp_attach
                0x00000000       0x14 contiki-avr-zigduino.a(tcpip.o)
 .text.udp_new  0x00000000       0x26 contiki-avr-zigduino.a(tcpip.o)
 .text.udp_broadcast_new
                0x00000000       0x54 contiki-avr-zigduino.a(tcpip.o)
 .text.icmp6_new
                0x00000000       0x2c contiki-avr-zigduino.a(tcpip.o)
 .text.tcpip_poll_udp
                0x00000000        0xe contiki-avr-zigduino.a(tcpip.o)
 .text.tcpip_poll_tcp
                0x00000000        0xe contiki-avr-zigduino.a(tcpip.o)
 .text.tcp_connect
                0x00000000       0x36 contiki-avr-zigduino.a(tcpip.o)
 .bss.i.4945    0x00000000        0x1 contiki-avr-zigduino.a(tcpip.o)
 .bss.i.4937    0x00000000        0x1 contiki-avr-zigduino.a(tcpip.o)
 .text          0x00000000        0x0 contiki-avr-zigduino.a(uip-ds6-route.o)
 .bss           0x00000000        0x0 contiki-avr-zigduino.a(uip-ds6-route.o)
 .text.uip_ds6_notification_add
                0x00000000       0x1c contiki-avr-zigduino.a(uip-ds6-route.o)
 .text.uip_ds6_notification_rm
                0x00000000        0xc contiki-avr-zigduino.a(uip-ds6-route.o)
 .text.uip_ds6_route_num_routes
                0x00000000        0xa contiki-avr-zigduino.a(uip-ds6-route.o)
 .text.uip_ds6_route_add
                0x00000000       0xcc contiki-avr-zigduino.a(uip-ds6-route.o)
 .text.uip_ds6_route_rm_by_nexthop
                0x00000000       0x14 contiki-avr-zigduino.a(uip-ds6-route.o)
 .text          0x00000000        0x0 contiki-avr-zigduino.a(uip-ds6-nbr.o)
 .bss           0x00000000        0x0 contiki-avr-zigduino.a(uip-ds6-nbr.o)
 .text.uip_ds6_nbr_get_ipaddr
                0x00000000        0x2 contiki-avr-zigduino.a(uip-ds6-nbr.o)
 .text.uip_ds6_nbr_num
                0x00000000       0x32 contiki-avr-zigduino.a(uip-ds6-nbr.o)
 .text.uip_ds6_nbr_lladdr_from_ipaddr
                0x00000000       0x14 contiki-avr-zigduino.a(uip-ds6-nbr.o)
 .text.uip_ds6_get_least_lifetime_neighbor
                0x00000000       0x6e contiki-avr-zigduino.a(uip-ds6-nbr.o)
 .text          0x00000000        0x0 contiki-avr-zigduino.a(uip-ds6.o)
 .bss           0x00000000        0x0 contiki-avr-zigduino.a(uip-ds6.o)
 .text.uip_ds6_get_global
                0x00000000       0x5a contiki-avr-zigduino.a(uip-ds6.o)
 .text.uip_ds6_aaddr_add
                0x00000000       0x64 contiki-avr-zigduino.a(uip-ds6.o)
 .text.uip_ds6_aaddr_rm
                0x00000000        0xa contiki-avr-zigduino.a(uip-ds6.o)
 .text.uip_ds6_aaddr_lookup
                0x00000000       0x3a contiki-avr-zigduino.a(uip-ds6.o)
 .bss.locaaddr  0x00000000        0x2 contiki-avr-zigduino.a(uip-ds6.o)
 .text          0x00000000        0x0 contiki-avr-zigduino.a(uip-nd6.o)
 .bss           0x00000000        0x0 contiki-avr-zigduino.a(uip-nd6.o)
 .text          0x00000000        0x0 contiki-avr-zigduino.a(uip-packetqueue)
 .bss           0x00000000        0x0 contiki-avr-zigduino.a(uip-packetqueue)
 .text          0x00000000        0x0 contiki-avr-zigduino.a(uip-split.o)
 .bss           0x00000000        0x0 contiki-avr-zigduino.a(uip-split.o)
 .text          0x00000000        0x0 contiki-avr-zigduino.a(uip6.o)
 .bss           0x00000000        0x0 contiki-avr-zigduino.a(uip6.o)
 .text.uip_chksum
                0x00000000       0x14 contiki-avr-zigduino.a(uip6.o)
 .text.uip_ipchksum
                0x00000000       0x22 contiki-avr-zigduino.a(uip6.o)
 .text.uip_connect
                0x00000000      0x114 contiki-avr-zigduino.a(uip6.o)
 .text.uip_udp_new
                0x00000000       0xca contiki-avr-zigduino.a(uip6.o)
 .text.uip_listen
                0x00000000       0x32 contiki-avr-zigduino.a(uip6.o)
 .text.uip_send
                0x00000000       0x38 contiki-avr-zigduino.a(uip6.o)
 .text          0x00000000        0x0 contiki-avr-zigduino.a(dn_serial_mt.o)
 .bss           0x00000000        0x0 contiki-avr-zigduino.a(dn_serial_mt.o)
 .text          0x00000000        0x0 contiki-avr-zigduino.a(dn_hdlc.o)
 .bss           0x00000000        0x0 contiki-avr-zigduino.a(dn_hdlc.o)
 .text          0x00000000        0x0 contiki-avr-zigduino.a(rtimer-arch.o)
 .bss           0x00000000        0x0 contiki-avr-zigduino.a(rtimer-arch.o)
 .text.rtimer_arch_sleep
                0x00000000       0xe8 contiki-avr-zigduino.a(rtimer-arch.o)
 .text          0x00000000        0x0 contiki-avr-zigduino.a(frame802154.o)
 .bss           0x00000000        0x0 contiki-avr-zigduino.a(frame802154.o)
 .text          0x00000000        0x0 contiki-avr-zigduino.a(framer-802154.o)
 .bss           0x00000000        0x0 contiki-avr-zigduino.a(framer-802154.o)
 .text          0x00000000        0x0 contiki-avr-zigduino.a(stimer.o)
 .bss           0x00000000        0x0 contiki-avr-zigduino.a(stimer.o)
 .text.stimer_reset
                0x00000000       0x2c contiki-avr-zigduino.a(stimer.o)
 .text.stimer_restart
                0x00000000       0x18 contiki-avr-zigduino.a(stimer.o)
 .text.stimer_elapsed
                0x00000000       0x28 contiki-avr-zigduino.a(stimer.o)
 .text          0x00000000        0x0 contiki-avr-zigduino.a(nbr-table.o)
 .bss           0x00000000        0x0 contiki-avr-zigduino.a(nbr-table.o)
 .text.nbr_table_lock
                0x00000000       0x12 contiki-avr-zigduino.a(nbr-table.o)
 .text.nbr_table_unlock
                0x00000000       0x12 contiki-avr-zigduino.a(nbr-table.o)
 .text          0x00000000        0x0 contiki-avr-zigduino.a(uip-icmp6.o)
 .bss           0x00000000        0x0 contiki-avr-zigduino.a(uip-icmp6.o)
 .text.uip_icmp6_send
                0x00000000       0xb2 contiki-avr-zigduino.a(uip-icmp6.o)
 .text          0x00000000        0x0 /var/folders/kw/xp_j5cy50g5fm6r3w446d9rm0000gn/T//cckXVcIg.o
 .bss           0x00000000        0x0 /var/folders/kw/xp_j5cy50g5fm6r3w446d9rm0000gn/T//cckXVcIg.o
 .text          0x00000000        0x0 /usr/local/CrossPack-AVR-20131216/lib/gcc/avr/4.8.1/../../../../avr/lib/avr51/libc.a(malloc.o)
 .bss           0x00000000        0x0 /usr/local/CrossPack-AVR-20131216/lib/gcc/avr/4.8.1/../../../../avr/lib/avr51/libc.a(malloc.o)
 .text          0x00000000        0x0 /usr/local/CrossPack-AVR-20131216/lib/gcc/avr/4.8.1/../../../../avr/lib/avr51/libc.a(rand.o)
 .bss           0x00000000        0x0 /usr/local/CrossPack-AVR-20131216/lib/gcc/avr/4.8.1/../../../../avr/lib/avr51/libc.a(rand.o)
 .text          0x00000000        0x0 /usr/local/CrossPack-AVR-20131216/lib/gcc/avr/4.8.1/../../../../avr/lib/avr51/libc.a(memcpy_P.o)
 .bss           0x00000000        0x0 /usr/local/CrossPack-AVR-20131216/lib/gcc/avr/4.8.1/../../../../avr/lib/avr51/libc.a(memcpy_P.o)
 .text          0x00000000        0x0 /usr/local/CrossPack-AVR-20131216/lib/gcc/avr/4.8.1/../../../../avr/lib/avr51/libc.a(strcmp_P.o)
 .bss           0x00000000        0x0 /usr/local/CrossPack-AVR-20131216/lib/gcc/avr/4.8.1/../../../../avr/lib/avr51/libc.a(strcmp_P.o)
 .text          0x00000000        0x0 /usr/local/CrossPack-AVR-20131216/lib/gcc/avr/4.8.1/../../../../avr/lib/avr51/libc.a(memcmp.o)
 .bss           0x00000000        0x0 /usr/local/CrossPack-AVR-20131216/lib/gcc/avr/4.8.1/../../../../avr/lib/avr51/libc.a(memcmp.o)
 .text          0x00000000        0x0 /usr/local/CrossPack-AVR-20131216/lib/gcc/avr/4.8.1/../../../../avr/lib/avr51/libc.a(memcpy.o)
 .bss           0x00000000        0x0 /usr/local/CrossPack-AVR-20131216/lib/gcc/avr/4.8.1/../../../../avr/lib/avr51/libc.a(memcpy.o)
 .text          0x00000000        0x0 /usr/local/CrossPack-AVR-20131216/lib/gcc/avr/4.8.1/../../../../avr/lib/avr51/libc.a(memmove.o)
 .bss           0x00000000        0x0 /usr/local/CrossPack-AVR-20131216/lib/gcc/avr/4.8.1/../../../../avr/lib/avr51/libc.a(memmove.o)
 .text          0x00000000        0x0 /usr/local/CrossPack-AVR-20131216/lib/gcc/avr/4.8.1/../../../../avr/lib/avr51/libc.a(memset.o)
 .bss           0x00000000        0x0 /usr/local/CrossPack-AVR-20131216/lib/gcc/avr/4.8.1/../../../../avr/lib/avr51/libc.a(memset.o)
 .text          0x00000000        0x0 /usr/local/CrossPack-AVR-20131216/lib/gcc/avr/4.8.1/../../../../avr/lib/avr51/libc.a(strcmp.o)
 .bss           0x00000000        0x0 /usr/local/CrossPack-AVR-20131216/lib/gcc/avr/4.8.1/../../../../avr/lib/avr51/libc.a(strcmp.o)
 .text          0x00000000        0x0 /usr/local/CrossPack-AVR-20131216/lib/gcc/avr/4.8.1/../../../../avr/lib/avr51/libc.a(strncmp.o)
 .bss           0x00000000        0x0 /usr/local/CrossPack-AVR-20131216/lib/gcc/avr/4.8.1/../../../../avr/lib/avr51/libc.a(strncmp.o)
 .text          0x00000000        0x0 /usr/local/CrossPack-AVR-20131216/lib/gcc/avr/4.8.1/../../../../avr/lib/avr51/libc.a(iob.o)
 .bss           0x00000000        0x0 /usr/local/CrossPack-AVR-20131216/lib/gcc/avr/4.8.1/../../../../avr/lib/avr51/libc.a(iob.o)
 .text          0x00000000        0x0 /usr/local/CrossPack-AVR-20131216/lib/gcc/avr/4.8.1/../../../../avr/lib/avr51/libc.a(printf.o)
 .bss           0x00000000        0x0 /usr/local/CrossPack-AVR-20131216/lib/gcc/avr/4.8.1/../../../../avr/lib/avr51/libc.a(printf.o)
 .text          0x00000000        0x0 /usr/local/CrossPack-AVR-20131216/lib/gcc/avr/4.8.1/../../../../avr/lib/avr51/libc.a(printf_p.o)
 .bss           0x00000000        0x0 /usr/local/CrossPack-AVR-20131216/lib/gcc/avr/4.8.1/../../../../avr/lib/avr51/libc.a(printf_p.o)
 .text          0x00000000        0x0 /usr/local/CrossPack-AVR-20131216/lib/gcc/avr/4.8.1/../../../../avr/lib/avr51/libc.a(puts.o)
 .bss           0x00000000        0x0 /usr/local/CrossPack-AVR-20131216/lib/gcc/avr/4.8.1/../../../../avr/lib/avr51/libc.a(puts.o)
 .text          0x00000000        0x0 /usr/local/CrossPack-AVR-20131216/lib/gcc/avr/4.8.1/../../../../avr/lib/avr51/libc.a(vprintf.o)
 .bss           0x00000000        0x0 /usr/local/CrossPack-AVR-20131216/lib/gcc/avr/4.8.1/../../../../avr/lib/avr51/libc.a(vprintf.o)
 .text          0x00000000        0x0 /usr/local/CrossPack-AVR-20131216/lib/gcc/avr/4.8.1/../../../../avr/lib/avr51/libc.a(vfprintf_std.o)
 .bss           0x00000000        0x0 /usr/local/CrossPack-AVR-20131216/lib/gcc/avr/4.8.1/../../../../avr/lib/avr51/libc.a(vfprintf_std.o)
 .text          0x00000000        0x0 /usr/local/CrossPack-AVR-20131216/lib/gcc/avr/4.8.1/../../../../avr/lib/avr51/libc.a(eerd_block_atmega128rfa1.o)
 .bss           0x00000000        0x0 /usr/local/CrossPack-AVR-20131216/lib/gcc/avr/4.8.1/../../../../avr/lib/avr51/libc.a(eerd_block_atmega128rfa1.o)
 .text          0x00000000        0x0 /usr/local/CrossPack-AVR-20131216/lib/gcc/avr/4.8.1/../../../../avr/lib/avr51/libc.a(eerd_byte_atmega128rfa1.o)
 .bss           0x00000000        0x0 /usr/local/CrossPack-AVR-20131216/lib/gcc/avr/4.8.1/../../../../avr/lib/avr51/libc.a(eerd_byte_atmega128rfa1.o)
 .text          0x00000000        0x0 /usr/local/CrossPack-AVR-20131216/lib/gcc/avr/4.8.1/../../../../avr/lib/avr51/libc.a(eerd_word_atmega128rfa1.o)
 .bss           0x00000000        0x0 /usr/local/CrossPack-AVR-20131216/lib/gcc/avr/4.8.1/../../../../avr/lib/avr51/libc.a(eerd_word_atmega128rfa1.o)
 .text          0x00000000        0x0 /usr/local/CrossPack-AVR-20131216/lib/gcc/avr/4.8.1/../../../../avr/lib/avr51/libc.a(eewr_block_atmega128rfa1.o)
 .bss           0x00000000        0x0 /usr/local/CrossPack-AVR-20131216/lib/gcc/avr/4.8.1/../../../../avr/lib/avr51/libc.a(eewr_block_atmega128rfa1.o)
 .text          0x00000000        0x0 /usr/local/CrossPack-AVR-20131216/lib/gcc/avr/4.8.1/../../../../avr/lib/avr51/libc.a(eewr_byte_atmega128rfa1.o)
 .bss           0x00000000        0x0 /usr/local/CrossPack-AVR-20131216/lib/gcc/avr/4.8.1/../../../../avr/lib/avr51/libc.a(eewr_byte_atmega128rfa1.o)
 .text          0x00000000        0x0 /usr/local/CrossPack-AVR-20131216/lib/gcc/avr/4.8.1/../../../../avr/lib/avr51/libc.a(eewr_word_atmega128rfa1.o)
 .bss           0x00000000        0x0 /usr/local/CrossPack-AVR-20131216/lib/gcc/avr/4.8.1/../../../../avr/lib/avr51/libc.a(eewr_word_atmega128rfa1.o)
 .text          0x00000000        0x0 /usr/local/CrossPack-AVR-20131216/lib/gcc/avr/4.8.1/../../../../avr/lib/avr51/libc.a(strnlen_P.o)
 .bss           0x00000000        0x0 /usr/local/CrossPack-AVR-20131216/lib/gcc/avr/4.8.1/../../../../avr/lib/avr51/libc.a(strnlen_P.o)
 .text          0x00000000        0x0 /usr/local/CrossPack-AVR-20131216/lib/gcc/avr/4.8.1/../../../../avr/lib/avr51/libc.a(strnlen.o)
 .bss           0x00000000        0x0 /usr/local/CrossPack-AVR-20131216/lib/gcc/avr/4.8.1/../../../../avr/lib/avr51/libc.a(strnlen.o)
 .text          0x00000000        0x0 /usr/local/CrossPack-AVR-20131216/lib/gcc/avr/4.8.1/../../../../avr/lib/avr51/libc.a(fputc.o)
 .bss           0x00000000        0x0 /usr/local/CrossPack-AVR-20131216/lib/gcc/avr/4.8.1/../../../../avr/lib/avr51/libc.a(fputc.o)
 .text          0x00000000        0x0 /usr/local/CrossPack-AVR-20131216/lib/gcc/avr/4.8.1/../../../../avr/lib/avr51/libc.a(ultoa_invert.o)
 .bss           0x00000000        0x0 /usr/local/CrossPack-AVR-20131216/lib/gcc/avr/4.8.1/../../../../avr/lib/avr51/libc.a(ultoa_invert.o)
 .text          0x00000000        0x0 /usr/local/CrossPack-AVR-20131216/lib/gcc/avr/4.8.1/avr51/libgcc.a(_udivmodqi4.o)
 .bss           0x00000000        0x0 /usr/local/CrossPack-AVR-20131216/lib/gcc/avr/4.8.1/avr51/libgcc.a(_udivmodqi4.o)
 .text.libgcc.mul
                0x00000000        0x0 /usr/local/CrossPack-AVR-20131216/lib/gcc/avr/4.8.1/avr51/libgcc.a(_udivmodqi4.o)
 .text.libgcc   0x00000000        0x0 /usr/local/CrossPack-AVR-20131216/lib/gcc/avr/4.8.1/avr51/libgcc.a(_udivmodqi4.o)
 .text.libgcc.prologue
                0x00000000        0x0 /usr/local/CrossPack-AVR-20131216/lib/gcc/avr/4.8.1/avr51/libgcc.a(_udivmodqi4.o)
 .text.libgcc.builtins
                0x00000000        0x0 /usr/local/CrossPack-AVR-20131216/lib/gcc/avr/4.8.1/avr51/libgcc.a(_udivmodqi4.o)
 .text.libgcc.fmul
                0x00000000        0x0 /usr/local/CrossPack-AVR-20131216/lib/gcc/avr/4.8.1/avr51/libgcc.a(_udivmodqi4.o)
 .text.libgcc.fixed
                0x00000000        0x0 /usr/local/CrossPack-AVR-20131216/lib/gcc/avr/4.8.1/avr51/libgcc.a(_udivmodqi4.o)
 .text          0x00000000        0x0 /usr/local/CrossPack-AVR-20131216/lib/gcc/avr/4.8.1/avr51/libgcc.a(_udivmodhi4.o)
 .bss           0x00000000        0x0 /usr/local/CrossPack-AVR-20131216/lib/gcc/avr/4.8.1/avr51/libgcc.a(_udivmodhi4.o)
 .text.libgcc.mul
                0x00000000        0x0 /usr/local/CrossPack-AVR-20131216/lib/gcc/avr/4.8.1/avr51/libgcc.a(_udivmodhi4.o)
 .text.libgcc   0x00000000        0x0 /usr/local/CrossPack-AVR-20131216/lib/gcc/avr/4.8.1/avr51/libgcc.a(_udivmodhi4.o)
 .text.libgcc.prologue
                0x00000000        0x0 /usr/local/CrossPack-AVR-20131216/lib/gcc/avr/4.8.1/avr51/libgcc.a(_udivmodhi4.o)
 .text.libgcc.builtins
                0x00000000        0x0 /usr/local/CrossPack-AVR-20131216/lib/gcc/avr/4.8.1/avr51/libgcc.a(_udivmodhi4.o)
 .text.libgcc.fmul
                0x00000000        0x0 /usr/local/CrossPack-AVR-20131216/lib/gcc/avr/4.8.1/avr51/libgcc.a(_udivmodhi4.o)
 .text.libgcc.fixed
                0x00000000        0x0 /usr/local/CrossPack-AVR-20131216/lib/gcc/avr/4.8.1/avr51/libgcc.a(_udivmodhi4.o)
 .text          0x00000000        0x0 /usr/local/CrossPack-AVR-20131216/lib/gcc/avr/4.8.1/avr51/libgcc.a(_divmodhi4.o)
 .bss           0x00000000        0x0 /usr/local/CrossPack-AVR-20131216/lib/gcc/avr/4.8.1/avr51/libgcc.a(_divmodhi4.o)
 .text.libgcc.mul
                0x00000000        0x0 /usr/local/CrossPack-AVR-20131216/lib/gcc/avr/4.8.1/avr51/libgcc.a(_divmodhi4.o)
 .text.libgcc   0x00000000        0x0 /usr/local/CrossPack-AVR-20131216/lib/gcc/avr/4.8.1/avr51/libgcc.a(_divmodhi4.o)
 .text.libgcc.prologue
                0x00000000        0x0 /usr/local/CrossPack-AVR-20131216/lib/gcc/avr/4.8.1/avr51/libgcc.a(_divmodhi4.o)
 .text.libgcc.builtins
                0x00000000        0x0 /usr/local/CrossPack-AVR-20131216/lib/gcc/avr/4.8.1/avr51/libgcc.a(_divmodhi4.o)
 .text.libgcc.fmul
                0x00000000        0x0 /usr/local/CrossPack-AVR-20131216/lib/gcc/avr/4.8.1/avr51/libgcc.a(_divmodhi4.o)
 .text.libgcc.fixed
                0x00000000        0x0 /usr/local/CrossPack-AVR-20131216/lib/gcc/avr/4.8.1/avr51/libgcc.a(_divmodhi4.o)
 .text          0x00000000        0x0 /usr/local/CrossPack-AVR-20131216/lib/gcc/avr/4.8.1/avr51/libgcc.a(_udivmodsi4.o)
 .bss           0x00000000        0x0 /usr/local/CrossPack-AVR-20131216/lib/gcc/avr/4.8.1/avr51/libgcc.a(_udivmodsi4.o)
 .text.libgcc.mul
                0x00000000        0x0 /usr/local/CrossPack-AVR-20131216/lib/gcc/avr/4.8.1/avr51/libgcc.a(_udivmodsi4.o)
 .text.libgcc   0x00000000        0x0 /usr/local/CrossPack-AVR-20131216/lib/gcc/avr/4.8.1/avr51/libgcc.a(_udivmodsi4.o)
 .text.libgcc.prologue
                0x00000000        0x0 /usr/local/CrossPack-AVR-20131216/lib/gcc/avr/4.8.1/avr51/libgcc.a(_udivmodsi4.o)
 .text.libgcc.builtins
                0x00000000        0x0 /usr/local/CrossPack-AVR-20131216/lib/gcc/avr/4.8.1/avr51/libgcc.a(_udivmodsi4.o)
 .text.libgcc.fmul
                0x00000000        0x0 /usr/local/CrossPack-AVR-20131216/lib/gcc/avr/4.8.1/avr51/libgcc.a(_udivmodsi4.o)
 .text.libgcc.fixed
                0x00000000        0x0 /usr/local/CrossPack-AVR-20131216/lib/gcc/avr/4.8.1/avr51/libgcc.a(_udivmodsi4.o)
 .text          0x00000000        0x0 /usr/local/CrossPack-AVR-20131216/lib/gcc/avr/4.8.1/avr51/libgcc.a(_divmodsi4.o)
 .bss           0x00000000        0x0 /usr/local/CrossPack-AVR-20131216/lib/gcc/avr/4.8.1/avr51/libgcc.a(_divmodsi4.o)
 .text.libgcc.mul
                0x00000000        0x0 /usr/local/CrossPack-AVR-20131216/lib/gcc/avr/4.8.1/avr51/libgcc.a(_divmodsi4.o)
 .text.libgcc   0x00000000        0x0 /usr/local/CrossPack-AVR-20131216/lib/gcc/avr/4.8.1/avr51/libgcc.a(_divmodsi4.o)
 .text.libgcc.prologue
                0x00000000        0x0 /usr/local/CrossPack-AVR-20131216/lib/gcc/avr/4.8.1/avr51/libgcc.a(_divmodsi4.o)
 .text.libgcc.builtins
                0x00000000        0x0 /usr/local/CrossPack-AVR-20131216/lib/gcc/avr/4.8.1/avr51/libgcc.a(_divmodsi4.o)
 .text.libgcc.fmul
                0x00000000        0x0 /usr/local/CrossPack-AVR-20131216/lib/gcc/avr/4.8.1/avr51/libgcc.a(_divmodsi4.o)
 .text.libgcc.fixed
                0x00000000        0x0 /usr/local/CrossPack-AVR-20131216/lib/gcc/avr/4.8.1/avr51/libgcc.a(_divmodsi4.o)
 .text          0x00000000        0x0 /usr/local/CrossPack-AVR-20131216/lib/gcc/avr/4.8.1/avr51/libgcc.a(_negsi2.o)
 .bss           0x00000000        0x0 /usr/local/CrossPack-AVR-20131216/lib/gcc/avr/4.8.1/avr51/libgcc.a(_negsi2.o)
 .text.libgcc.mul
                0x00000000        0x0 /usr/local/CrossPack-AVR-20131216/lib/gcc/avr/4.8.1/avr51/libgcc.a(_negsi2.o)
 .text.libgcc   0x00000000        0x0 /usr/local/CrossPack-AVR-20131216/lib/gcc/avr/4.8.1/avr51/libgcc.a(_negsi2.o)
 .text.libgcc.prologue
                0x00000000        0x0 /usr/local/CrossPack-AVR-20131216/lib/gcc/avr/4.8.1/avr51/libgcc.a(_negsi2.o)
 .text.libgcc.builtins
                0x00000000        0x0 /usr/local/CrossPack-AVR-20131216/lib/gcc/avr/4.8.1/avr51/libgcc.a(_negsi2.o)
 .text.libgcc.fmul
                0x00000000        0x0 /usr/local/CrossPack-AVR-20131216/lib/gcc/avr/4.8.1/avr51/libgcc.a(_negsi2.o)
 .text.libgcc.fixed
                0x00000000        0x0 /usr/local/CrossPack-AVR-20131216/lib/gcc/avr/4.8.1/avr51/libgcc.a(_negsi2.o)
 .text          0x00000000        0x0 /usr/local/CrossPack-AVR-20131216/lib/gcc/avr/4.8.1/avr51/libgcc.a(_exit.o)
 .bss           0x00000000        0x0 /usr/local/CrossPack-AVR-20131216/lib/gcc/avr/4.8.1/avr51/libgcc.a(_exit.o)
 .text.libgcc.mul
                0x00000000        0x0 /usr/local/CrossPack-AVR-20131216/lib/gcc/avr/4.8.1/avr51/libgcc.a(_exit.o)
 .text.libgcc.div
                0x00000000        0x0 /usr/local/CrossPack-AVR-20131216/lib/gcc/avr/4.8.1/avr51/libgcc.a(_exit.o)
 .text.libgcc   0x00000000        0x0 /usr/local/CrossPack-AVR-20131216/lib/gcc/avr/4.8.1/avr51/libgcc.a(_exit.o)
 .text.libgcc.prologue
                0x00000000        0x0 /usr/local/CrossPack-AVR-20131216/lib/gcc/avr/4.8.1/avr51/libgcc.a(_exit.o)
 .text.libgcc.builtins
                0x00000000        0x0 /usr/local/CrossPack-AVR-20131216/lib/gcc/avr/4.8.1/avr51/libgcc.a(_exit.o)
 .text.libgcc.fmul
                0x00000000        0x0 /usr/local/CrossPack-AVR-20131216/lib/gcc/avr/4.8.1/avr51/libgcc.a(_exit.o)
 .text.libgcc.fixed
                0x00000000        0x0 /usr/local/CrossPack-AVR-20131216/lib/gcc/avr/4.8.1/avr51/libgcc.a(_exit.o)
 .text          0x00000000        0x0 /usr/local/CrossPack-AVR-20131216/lib/gcc/avr/4.8.1/avr51/libgcc.a(_tablejump.o)
 .bss           0x00000000        0x0 /usr/local/CrossPack-AVR-20131216/lib/gcc/avr/4.8.1/avr51/libgcc.a(_tablejump.o)
 .text.libgcc.mul
                0x00000000        0x0 /usr/local/CrossPack-AVR-20131216/lib/gcc/avr/4.8.1/avr51/libgcc.a(_tablejump.o)
 .text.libgcc.div
                0x00000000        0x0 /usr/local/CrossPack-AVR-20131216/lib/gcc/avr/4.8.1/avr51/libgcc.a(_tablejump.o)
 .text.libgcc.prologue
                0x00000000        0x0 /usr/local/CrossPack-AVR-20131216/lib/gcc/avr/4.8.1/avr51/libgcc.a(_tablejump.o)
 .text.libgcc.builtins
                0x00000000        0x0 /usr/local/CrossPack-AVR-20131216/lib/gcc/avr/4.8.1/avr51/libgcc.a(_tablejump.o)
 .text.libgcc.fmul
                0x00000000        0x0 /usr/local/CrossPack-AVR-20131216/lib/gcc/avr/4.8.1/avr51/libgcc.a(_tablejump.o)
 .text.libgcc.fixed
                0x00000000        0x0 /usr/local/CrossPack-AVR-20131216/lib/gcc/avr/4.8.1/avr51/libgcc.a(_tablejump.o)
 .text          0x00000000        0x0 /usr/local/CrossPack-AVR-20131216/lib/gcc/avr/4.8.1/avr51/libgcc.a(_copy_data.o)
 .bss           0x00000000        0x0 /usr/local/CrossPack-AVR-20131216/lib/gcc/avr/4.8.1/avr51/libgcc.a(_copy_data.o)
 .text.libgcc.mul
                0x00000000        0x0 /usr/local/CrossPack-AVR-20131216/lib/gcc/avr/4.8.1/avr51/libgcc.a(_copy_data.o)
 .text.libgcc.div
                0x00000000        0x0 /usr/local/CrossPack-AVR-20131216/lib/gcc/avr/4.8.1/avr51/libgcc.a(_copy_data.o)
 .text.libgcc   0x00000000        0x0 /usr/local/CrossPack-AVR-20131216/lib/gcc/avr/4.8.1/avr51/libgcc.a(_copy_data.o)
 .text.libgcc.prologue
                0x00000000        0x0 /usr/local/CrossPack-AVR-20131216/lib/gcc/avr/4.8.1/avr51/libgcc.a(_copy_data.o)
 .text.libgcc.builtins
                0x00000000        0x0 /usr/local/CrossPack-AVR-20131216/lib/gcc/avr/4.8.1/avr51/libgcc.a(_copy_data.o)
 .text.libgcc.fmul
                0x00000000        0x0 /usr/local/CrossPack-AVR-20131216/lib/gcc/avr/4.8.1/avr51/libgcc.a(_copy_data.o)
 .text.libgcc.fixed
                0x00000000        0x0 /usr/local/CrossPack-AVR-20131216/lib/gcc/avr/4.8.1/avr51/libgcc.a(_copy_data.o)
 .text          0x00000000        0x0 /usr/local/CrossPack-AVR-20131216/lib/gcc/avr/4.8.1/avr51/libgcc.a(_clear_bss.o)
 .bss           0x00000000        0x0 /usr/local/CrossPack-AVR-20131216/lib/gcc/avr/4.8.1/avr51/libgcc.a(_clear_bss.o)
 .text.libgcc.mul
                0x00000000        0x0 /usr/local/CrossPack-AVR-20131216/lib/gcc/avr/4.8.1/avr51/libgcc.a(_clear_bss.o)
 .text.libgcc.div
                0x00000000        0x0 /usr/local/CrossPack-AVR-20131216/lib/gcc/avr/4.8.1/avr51/libgcc.a(_clear_bss.o)
 .text.libgcc   0x00000000        0x0 /usr/local/CrossPack-AVR-20131216/lib/gcc/avr/4.8.1/avr51/libgcc.a(_clear_bss.o)
 .text.libgcc.prologue
                0x00000000        0x0 /usr/local/CrossPack-AVR-20131216/lib/gcc/avr/4.8.1/avr51/libgcc.a(_clear_bss.o)
 .text.libgcc.builtins
                0x00000000        0x0 /usr/local/CrossPack-AVR-20131216/lib/gcc/avr/4.8.1/avr51/libgcc.a(_clear_bss.o)
 .text.libgcc.fmul
                0x00000000        0x0 /usr/local/CrossPack-AVR-20131216/lib/gcc/avr/4.8.1/avr51/libgcc.a(_clear_bss.o)
 .text.libgcc.fixed
                0x00000000        0x0 /usr/local/CrossPack-AVR-20131216/lib/gcc/avr/4.8.1/avr51/libgcc.a(_clear_bss.o)
 .text          0x00000000        0x0 /usr/local/CrossPack-AVR-20131216/lib/gcc/avr/4.8.1/avr51/libgcc.a(_bswapsi2.o)
 .bss           0x00000000        0x0 /usr/local/CrossPack-AVR-20131216/lib/gcc/avr/4.8.1/avr51/libgcc.a(_bswapsi2.o)
 .text.libgcc.mul
                0x00000000        0x0 /usr/local/CrossPack-AVR-20131216/lib/gcc/avr/4.8.1/avr51/libgcc.a(_bswapsi2.o)
 .text.libgcc.div
                0x00000000        0x0 /usr/local/CrossPack-AVR-20131216/lib/gcc/avr/4.8.1/avr51/libgcc.a(_bswapsi2.o)
 .text.libgcc   0x00000000        0x0 /usr/local/CrossPack-AVR-20131216/lib/gcc/avr/4.8.1/avr51/libgcc.a(_bswapsi2.o)
 .text.libgcc.prologue
                0x00000000        0x0 /usr/local/CrossPack-AVR-20131216/lib/gcc/avr/4.8.1/avr51/libgcc.a(_bswapsi2.o)
 .text.libgcc.fmul
                0x00000000        0x0 /usr/local/CrossPack-AVR-20131216/lib/gcc/avr/4.8.1/avr51/libgcc.a(_bswapsi2.o)
 .text.libgcc.fixed
                0x00000000        0x0 /usr/local/CrossPack-AVR-20131216/lib/gcc/avr/4.8.1/avr51/libgcc.a(_bswapsi2.o)
 .text          0x00000000        0x0 /usr/local/CrossPack-AVR-20131216/lib/gcc/avr/4.8.1/avr51/libgcc.a(_muluhisi3.o)
 .bss           0x00000000        0x0 /usr/local/CrossPack-AVR-20131216/lib/gcc/avr/4.8.1/avr51/libgcc.a(_muluhisi3.o)
 .text.libgcc.div
                0x00000000        0x0 /usr/local/CrossPack-AVR-20131216/lib/gcc/avr/4.8.1/avr51/libgcc.a(_muluhisi3.o)
 .text.libgcc   0x00000000        0x0 /usr/local/CrossPack-AVR-20131216/lib/gcc/avr/4.8.1/avr51/libgcc.a(_muluhisi3.o)
 .text.libgcc.prologue
                0x00000000        0x0 /usr/local/CrossPack-AVR-20131216/lib/gcc/avr/4.8.1/avr51/libgcc.a(_muluhisi3.o)
 .text.libgcc.builtins
                0x00000000        0x0 /usr/local/CrossPack-AVR-20131216/lib/gcc/avr/4.8.1/avr51/libgcc.a(_muluhisi3.o)
 .text.libgcc.fmul
                0x00000000        0x0 /usr/local/CrossPack-AVR-20131216/lib/gcc/avr/4.8.1/avr51/libgcc.a(_muluhisi3.o)
 .text.libgcc.fixed
                0x00000000        0x0 /usr/local/CrossPack-AVR-20131216/lib/gcc/avr/4.8.1/avr51/libgcc.a(_muluhisi3.o)
 .text          0x00000000        0x0 /usr/local/CrossPack-AVR-20131216/lib/gcc/avr/4.8.1/avr51/libgcc.a(_mulshisi3.o)
 .bss           0x00000000        0x0 /usr/local/CrossPack-AVR-20131216/lib/gcc/avr/4.8.1/avr51/libgcc.a(_mulshisi3.o)
 .text.libgcc.div
                0x00000000        0x0 /usr/local/CrossPack-AVR-20131216/lib/gcc/avr/4.8.1/avr51/libgcc.a(_mulshisi3.o)
 .text.libgcc   0x00000000        0x0 /usr/local/CrossPack-AVR-20131216/lib/gcc/avr/4.8.1/avr51/libgcc.a(_mulshisi3.o)
 .text.libgcc.prologue
                0x00000000        0x0 /usr/local/CrossPack-AVR-20131216/lib/gcc/avr/4.8.1/avr51/libgcc.a(_mulshisi3.o)
 .text.libgcc.builtins
                0x00000000        0x0 /usr/local/CrossPack-AVR-20131216/lib/gcc/avr/4.8.1/avr51/libgcc.a(_mulshisi3.o)
 .text.libgcc.fmul
                0x00000000        0x0 /usr/local/CrossPack-AVR-20131216/lib/gcc/avr/4.8.1/avr51/libgcc.a(_mulshisi3.o)
 .text.libgcc.fixed
                0x00000000        0x0 /usr/local/CrossPack-AVR-20131216/lib/gcc/avr/4.8.1/avr51/libgcc.a(_mulshisi3.o)
 .text          0x00000000        0x0 /usr/local/CrossPack-AVR-20131216/lib/gcc/avr/4.8.1/avr51/libgcc.a(_prologue.o)
 .bss           0x00000000        0x0 /usr/local/CrossPack-AVR-20131216/lib/gcc/avr/4.8.1/avr51/libgcc.a(_prologue.o)
 .text.libgcc.mul
                0x00000000        0x0 /usr/local/CrossPack-AVR-20131216/lib/gcc/avr/4.8.1/avr51/libgcc.a(_prologue.o)
 .text.libgcc.div
                0x00000000        0x0 /usr/local/CrossPack-AVR-20131216/lib/gcc/avr/4.8.1/avr51/libgcc.a(_prologue.o)
 .text.libgcc   0x00000000        0x0 /usr/local/CrossPack-AVR-20131216/lib/gcc/avr/4.8.1/avr51/libgcc.a(_prologue.o)
 .text.libgcc.builtins
                0x00000000        0x0 /usr/local/CrossPack-AVR-20131216/lib/gcc/avr/4.8.1/avr51/libgcc.a(_prologue.o)
 .text.libgcc.fmul
                0x00000000        0x0 /usr/local/CrossPack-AVR-20131216/lib/gcc/avr/4.8.1/avr51/libgcc.a(_prologue.o)
 .text.libgcc.fixed
                0x00000000        0x0 /usr/local/CrossPack-AVR-20131216/lib/gcc/avr/4.8.1/avr51/libgcc.a(_prologue.o)
 .text          0x00000000        0x0 /usr/local/CrossPack-AVR-20131216/lib/gcc/avr/4.8.1/avr51/libgcc.a(_epilogue.o)
 .bss           0x00000000        0x0 /usr/local/CrossPack-AVR-20131216/lib/gcc/avr/4.8.1/avr51/libgcc.a(_epilogue.o)
 .text.libgcc.mul
                0x00000000        0x0 /usr/local/CrossPack-AVR-20131216/lib/gcc/avr/4.8.1/avr51/libgcc.a(_epilogue.o)
 .text.libgcc.div
                0x00000000        0x0 /usr/local/CrossPack-AVR-20131216/lib/gcc/avr/4.8.1/avr51/libgcc.a(_epilogue.o)
 .text.libgcc   0x00000000        0x0 /usr/local/CrossPack-AVR-20131216/lib/gcc/avr/4.8.1/avr51/libgcc.a(_epilogue.o)
 .text.libgcc.builtins
                0x00000000        0x0 /usr/local/CrossPack-AVR-20131216/lib/gcc/avr/4.8.1/avr51/libgcc.a(_epilogue.o)
 .text.libgcc.fmul
                0x00000000        0x0 /usr/local/CrossPack-AVR-20131216/lib/gcc/avr/4.8.1/avr51/libgcc.a(_epilogue.o)
 .text.libgcc.fixed
                0x00000000        0x0 /usr/local/CrossPack-AVR-20131216/lib/gcc/avr/4.8.1/avr51/libgcc.a(_epilogue.o)
 .text          0x00000000        0x0 /usr/local/CrossPack-AVR-20131216/lib/gcc/avr/4.8.1/avr51/libgcc.a(_umulhisi3.o)
 .bss           0x00000000        0x0 /usr/local/CrossPack-AVR-20131216/lib/gcc/avr/4.8.1/avr51/libgcc.a(_umulhisi3.o)
 .text.libgcc.div
                0x00000000        0x0 /usr/local/CrossPack-AVR-20131216/lib/gcc/avr/4.8.1/avr51/libgcc.a(_umulhisi3.o)
 .text.libgcc   0x00000000        0x0 /usr/local/CrossPack-AVR-20131216/lib/gcc/avr/4.8.1/avr51/libgcc.a(_umulhisi3.o)
 .text.libgcc.prologue
                0x00000000        0x0 /usr/local/CrossPack-AVR-20131216/lib/gcc/avr/4.8.1/avr51/libgcc.a(_umulhisi3.o)
 .text.libgcc.builtins
                0x00000000        0x0 /usr/local/CrossPack-AVR-20131216/lib/gcc/avr/4.8.1/avr51/libgcc.a(_umulhisi3.o)
 .text.libgcc.fmul
                0x00000000        0x0 /usr/local/CrossPack-AVR-20131216/lib/gcc/avr/4.8.1/avr51/libgcc.a(_umulhisi3.o)
 .text.libgcc.fixed
                0x00000000        0x0 /usr/local/CrossPack-AVR-20131216/lib/gcc/avr/4.8.1/avr51/libgcc.a(_umulhisi3.o)

Memory Configuration

Name             Origin             Length             Attributes
text             0x00000000         0x00020000         xr
data             0x00800100         0x0000ff00         rw !x
eeprom           0x00810000         0x00010000         rw !x
fuse             0x00820000         0x00000400         rw !x
lock             0x00830000         0x00000400         rw !x
signature        0x00840000         0x00000400         rw !x
user_signatures  0x00850000         0x00000400         rw !x
*default*        0x00000000         0xffffffff

Linker script and memory map

Address of section .data set to 0x800200
LOAD /usr/local/CrossPack-AVR-20131216/lib/gcc/avr/4.8.1/../../../../avr/lib/avr51/crtm128rfa1.o
LOAD /usr/local/CrossPack-AVR-20131216/lib/gcc/avr/4.8.1/../../../../avr/lib/avr51/libc.a
LOAD /usr/local/CrossPack-AVR-20131216/lib/gcc/avr/4.8.1/../../../../avr/lib/avr51/libm.a
Address of section .bootloader set to 0x1f800
LOAD loociCore.co
LOAD obj_avr-zigduino/tempSensor.o
LOAD obj_avr-zigduino/image-init.o
LOAD obj_avr-zigduino/codebaseDeploymentSM.o
LOAD obj_avr-zigduino/debug.o
LOAD obj_avr-zigduino/looci.o
LOAD obj_avr-zigduino/codebaseManager.o
LOAD obj_avr-zigduino/componentManager.o
LOAD obj_avr-zigduino/comp_services.o
LOAD obj_avr-zigduino/event.o
LOAD obj_avr-zigduino/eventBus.o
LOAD obj_avr-zigduino/triggermodule.o
LOAD obj_avr-zigduino/interceptor.o
LOAD obj_avr-zigduino/vector.o
LOAD obj_avr-zigduino/mmem.o
LOAD obj_avr-zigduino/utils.o
LOAD obj_avr-zigduino/hexCoding.o
LOAD obj_avr-zigduino/timer_utils.o
LOAD obj_avr-zigduino/keyList.o
LOAD obj_avr-zigduino/networking.o
LOAD obj_avr-zigduino/peers.o
LOAD obj_avr-zigduino/smartmesh.o
LOAD obj_avr-zigduino/runtime_control_local.o
LOAD obj_avr-zigduino/introspection_local.o
LOAD obj_avr-zigduino/reconfigurationEngine.o
LOAD contiki-avr-zigduino.a
LOAD /var/folders/kw/xp_j5cy50g5fm6r3w446d9rm0000gn/T//cckXVcIg.o
LOAD /usr/local/CrossPack-AVR-20131216/lib/gcc/avr/4.8.1/../../../../avr/lib/avr51/libc.a
START GROUP
LOAD /usr/local/CrossPack-AVR-20131216/lib/gcc/avr/4.8.1/avr51/libgcc.a
LOAD /usr/local/CrossPack-AVR-20131216/lib/gcc/avr/4.8.1/../../../../avr/lib/avr51/libm.a
LOAD /usr/local/CrossPack-AVR-20131216/lib/gcc/avr/4.8.1/../../../../avr/lib/avr51/libc.a
END GROUP

.hash
 *(.hash)

.dynsym
 *(.dynsym)

.dynstr
 *(.dynstr)

.gnu.version
 *(.gnu.version)

.gnu.version_d
 *(.gnu.version_d)

.gnu.version_r
 *(.gnu.version_r)

.rel.init
 *(.rel.init)

.rela.init
 *(.rela.init)

.rel.text
 *(.rel.text)
 *(.rel.text.*)
 *(.rel.gnu.linkonce.t*)

.rela.text
 *(.rela.text)
 *(.rela.text.*)
 *(.rela.gnu.linkonce.t*)

.rel.fini
 *(.rel.fini)

.rela.fini
 *(.rela.fini)

.rel.rodata
 *(.rel.rodata)
 *(.rel.rodata.*)
 *(.rel.gnu.linkonce.r*)

.rela.rodata
 *(.rela.rodata)
 *(.rela.rodata.*)
 *(.rela.gnu.linkonce.r*)

.rel.data
 *(.rel.data)
 *(.rel.data.*)
 *(.rel.gnu.linkonce.d*)

.rela.data
 *(.rela.data)
 *(.rela.data.*)
 *(.rela.gnu.linkonce.d*)

.rel.ctors
 *(.rel.ctors)

.rela.ctors
 *(.rela.ctors)

.rel.dtors
 *(.rel.dtors)

.rela.dtors
 *(.rela.dtors)

.rel.got
 *(.rel.got)

.rela.got
 *(.rela.got)

.rel.bss
 *(.rel.bss)

.rela.bss
 *(.rela.bss)

.rel.plt
 *(.rel.plt)

.rela.plt
 *(.rela.plt)

.text           0x00000000     0xebb4
 *(.vectors)
 .vectors       0x00000000      0x120 /usr/local/CrossPack-AVR-20131216/lib/gcc/avr/4.8.1/../../../../avr/lib/avr51/crtm128rfa1.o
                0x00000000                __vectors
                0x00000000                __vector_default
 *(.vectors)
 *(.progmem.gcc*)
 .progmem.gcc_sw_table.process_thread_looci_smartmeship
                0x00000120       0x26 obj_avr-zigduino/smartmesh.o
 .progmem.gcc_sw_table.elfloader_arch_relocate
                0x00000146       0x22 contiki-avr-zigduino.a(elfloader-avr.o)
 .progmem.gcc_sw_table.uip_process
                0x00000168       0x10 contiki-avr-zigduino.a(uip6.o)
                0x00000178                . = ALIGN (0x2)
                0x00000178                __trampolines_start = .
 *(.trampolines)
 .trampolines   0x00000178        0x0 linker stubs
 *(.trampolines*)
                0x00000178                __trampolines_end = .
 *(.progmem*)
 .progmem.data.__c.6082
                0x00000178       0x1d loociCore.co
 .progmem.data.__c.6079
                0x00000195       0x18 loociCore.co
 .progmem.data.__c.6077
                0x000001ad       0x13 loociCore.co
 .progmem.data.__c.5548
                0x000001c0        0x9 obj_avr-zigduino/tempSensor.o
 .progmem.data.__c.5555
                0x000001c9       0x1a obj_avr-zigduino/tempSensor.o
 .progmem.data.methods
                0x000001e3        0xc obj_avr-zigduino/tempSensor.o
 .progmem.data.temp_sample_name
                0x000001ef        0xc obj_avr-zigduino/tempSensor.o
 .progmem.data.initVar
                0x000001fb        0xb obj_avr-zigduino/tempSensor.o
 .progmem.data.temp_sample_receptacles
                0x00000206        0x2 obj_avr-zigduino/tempSensor.o
 .progmem.data.temp_sample_interfaces
                0x00000208        0x4 obj_avr-zigduino/tempSensor.o
 .progmem.data.temp_sample_properties
                0x0000020c        0x7 obj_avr-zigduino/tempSensor.o
 .progmem.data.__c.6259
                0x00000213       0x34 obj_avr-zigduino/codebaseDeploymentSM.o
 .progmem.data.__c.6257
                0x00000247       0x22 obj_avr-zigduino/codebaseDeploymentSM.o
 .progmem.data.__c.6252
                0x00000269        0x4 obj_avr-zigduino/codebaseDeploymentSM.o
 .progmem.data.__c.6250
                0x0000026d       0x14 obj_avr-zigduino/codebaseDeploymentSM.o
 .progmem.data.__c.6183
                0x00000281       0x2c obj_avr-zigduino/codebaseDeploymentSM.o
 .progmem.data.__c.6181
                0x000002ad       0x2b obj_avr-zigduino/codebaseDeploymentSM.o
 .progmem.data.__c.6179
                0x000002d8       0x24 obj_avr-zigduino/codebaseDeploymentSM.o
 .progmem.data.__c.6177
                0x000002fc        0xd obj_avr-zigduino/codebaseDeploymentSM.o
 .progmem.data.__c.6175
                0x00000309       0x2b obj_avr-zigduino/codebaseDeploymentSM.o
 .progmem.data.__c.6173
                0x00000334       0x1c obj_avr-zigduino/codebaseDeploymentSM.o
 .progmem.data.__c.6171
                0x00000350       0x16 obj_avr-zigduino/codebaseDeploymentSM.o
 .progmem.data.__c.6169
                0x00000366       0x10 obj_avr-zigduino/codebaseDeploymentSM.o
 .progmem.data.__c.6167
                0x00000376       0x2e obj_avr-zigduino/codebaseDeploymentSM.o
 .progmem.data.__c.6279
                0x000003a4       0x15 obj_avr-zigduino/codebaseDeploymentSM.o
 .progmem.data.__c.6277
                0x000003b9       0x29 obj_avr-zigduino/codebaseDeploymentSM.o
 .progmem.data.__c.6275
                0x000003e2       0x17 obj_avr-zigduino/codebaseDeploymentSM.o
 .progmem.data.__c.6273
                0x000003f9       0x1f obj_avr-zigduino/codebaseDeploymentSM.o
 .progmem.data.__c.6270
                0x00000418       0x1b obj_avr-zigduino/codebaseDeploymentSM.o
 .progmem.data.__c.2876
                0x00000433        0x2 obj_avr-zigduino/debug.o
 .progmem.data.__c.2871
                0x00000435        0x6 obj_avr-zigduino/debug.o
 .progmem.data.__c.2851
                0x0000043b        0x2 obj_avr-zigduino/debug.o
 .progmem.data.__c.2846
                0x0000043d        0x4 obj_avr-zigduino/debug.o
 .progmem.data.hextable_p
                0x00000441       0x10 obj_avr-zigduino/hexCoding.o
 .progmem.data.lc_rc_manager
                0x00000451       0x1c obj_avr-zigduino/runtime_control_local.o
                0x00000451                lc_rc_manager
 .progmem.data.lc_is_manager
                0x0000046d       0x22 obj_avr-zigduino/introspection_local.o
                0x0000046d                lc_is_manager
 .progmem.data.methods
                0x0000048f        0x8 obj_avr-zigduino/reconfigurationEngine.o
 .progmem.data.commandIntrospectionList
                0x00000497       0x33 obj_avr-zigduino/reconfigurationEngine.o
 .progmem.data.commandReconfigList
                0x000004ca       0x2a obj_avr-zigduino/reconfigurationEngine.o
 .progmem.data.reconfig_name
                0x000004f4        0xc obj_avr-zigduino/reconfigurationEngine.o
 .progmem.data.reconfig_properties
                0x00000500        0x0 obj_avr-zigduino/reconfigurationEngine.o
 .progmem.data.reconfig_receptacles
                0x00000500        0x4 obj_avr-zigduino/reconfigurationEngine.o
 .progmem.data.reconfig_interfaces
                0x00000504        0x4 obj_avr-zigduino/reconfigurationEngine.o
 .progmem.data.__c.5439
                0x00000508        0x8 contiki-avr-zigduino.a(contiki-main.o)
 .progmem.data.__c.5437
                0x00000510       0x32 contiki-avr-zigduino.a(contiki-main.o)
 .progmem.data.__c.5435
                0x00000542       0x14 contiki-avr-zigduino.a(contiki-main.o)
 .progmem.data.__c.5433
                0x00000556       0x25 contiki-avr-zigduino.a(contiki-main.o)
 .progmem.data.__c.5431
                0x0000057b       0x20 contiki-avr-zigduino.a(contiki-main.o)
 .progmem.data.__c.5428
                0x0000059b       0x1b contiki-avr-zigduino.a(contiki-main.o)
 .progmem.data.__c.5426
                0x000005b6        0xd contiki-avr-zigduino.a(contiki-main.o)
 .progmem.data.__c.5424
                0x000005c3       0x11 contiki-avr-zigduino.a(contiki-main.o)
 .progmem.data.__c.5422
                0x000005d4       0x11 contiki-avr-zigduino.a(contiki-main.o)
 .progmem.data.__c.5420
                0x000005e5       0x11 contiki-avr-zigduino.a(contiki-main.o)
 .progmem.data.__c.5418
                0x000005f6       0x11 contiki-avr-zigduino.a(contiki-main.o)
 .progmem.data.__c.5416
                0x00000607       0x1c contiki-avr-zigduino.a(contiki-main.o)
 .progmem.data.__c.5083
                0x00000623       0x2d contiki-avr-zigduino.a(params.o)
 .progmem.data.default_domain_name
                0x00000650        0xa contiki-avr-zigduino.a(params.o)
                0x00000650                default_domain_name
 .progmem.data.default_server_name
                0x0000065a        0xe contiki-avr-zigduino.a(params.o)
                0x0000065a                default_server_name
 .progmem.data.default_mac_address
                0x00000668        0x8 contiki-avr-zigduino.a(params.o)
                0x00000668                default_mac_address
 .progmem.data.symbols
                0x00000670      0x360 /var/folders/kw/xp_j5cy50g5fm6r3w446d9rm0000gn/T//cckXVcIg.o
                0x00000670                symbols
 .progmem.data.s_xEnc
                0x000009d0        0x5 /var/folders/kw/xp_j5cy50g5fm6r3w446d9rm0000gn/T//cckXVcIg.o
 .progmem.data.s_vprintf
                0x000009d5        0x8 /var/folders/kw/xp_j5cy50g5fm6r3w446d9rm0000gn/T//cckXVcIg.o
 .progmem.data.s_temp_sample_Lc
                0x000009dd        0xf /var/folders/kw/xp_j5cy50g5fm6r3w446d9rm0000gn/T//cckXVcIg.o
 .progmem.data.s_strnlen_P
                0x000009ec        0xa /var/folders/kw/xp_j5cy50g5fm6r3w446d9rm0000gn/T//cckXVcIg.o
 .progmem.data.s_strnlen
                0x000009f6        0x8 /var/folders/kw/xp_j5cy50g5fm6r3w446d9rm0000gn/T//cckXVcIg.o
 .progmem.data.s_strncmp
                0x000009fe        0x8 /var/folders/kw/xp_j5cy50g5fm6r3w446d9rm0000gn/T//cckXVcIg.o
 .progmem.data.s_strcpy_F
                0x00000a06        0x9 /var/folders/kw/xp_j5cy50g5fm6r3w446d9rm0000gn/T//cckXVcIg.o
 .progmem.data.s_strcmp_P
                0x00000a0f        0x9 /var/folders/kw/xp_j5cy50g5fm6r3w446d9rm0000gn/T//cckXVcIg.o
 .progmem.data.s_strcmp_F
                0x00000a18        0x9 /var/folders/kw/xp_j5cy50g5fm6r3w446d9rm0000gn/T//cckXVcIg.o
 .progmem.data.s_strcmp
                0x00000a21        0x7 /var/folders/kw/xp_j5cy50g5fm6r3w446d9rm0000gn/T//cckXVcIg.o
 .progmem.data.s_strLen_F
                0x00000a28        0x9 /var/folders/kw/xp_j5cy50g5fm6r3w446d9rm0000gn/T//cckXVcIg.o
 .progmem.data.s_smreceive
                0x00000a31        0xa /var/folders/kw/xp_j5cy50g5fm6r3w446d9rm0000gn/T//cckXVcIg.o
 .progmem.data.s_sleepseconds
                0x00000a3b        0xd /var/folders/kw/xp_j5cy50g5fm6r3w446d9rm0000gn/T//cckXVcIg.o
 .progmem.data.s_size
                0x00000a48        0x5 /var/folders/kw/xp_j5cy50g5fm6r3w446d9rm0000gn/T//cckXVcIg.o
 .progmem.data.s_shortcmp_F
                0x00000a4d        0xb /var/folders/kw/xp_j5cy50g5fm6r3w446d9rm0000gn/T//cckXVcIg.o
 .progmem.data.s_shortLen_F
                0x00000a58        0xb /var/folders/kw/xp_j5cy50g5fm6r3w446d9rm0000gn/T//cckXVcIg.o
 .progmem.data.s_serial_line_process
                0x00000a63       0x14 /var/folders/kw/xp_j5cy50g5fm6r3w446d9rm0000gn/T//cckXVcIg.o
 .progmem.data.s_serial_line_input_byte
                0x00000a77       0x17 /var/folders/kw/xp_j5cy50g5fm6r3w446d9rm0000gn/T//cckXVcIg.o
 .progmem.data.s_serial_line_event_message
                0x00000a8e       0x1a /var/folders/kw/xp_j5cy50g5fm6r3w446d9rm0000gn/T//cckXVcIg.o
 .progmem.data.s_sensors_process
                0x00000aa8       0x10 /var/folders/kw/xp_j5cy50g5fm6r3w446d9rm0000gn/T//cckXVcIg.o
 .progmem.data.s_sensors_flags
                0x00000ab8        0xe /var/folders/kw/xp_j5cy50g5fm6r3w446d9rm0000gn/T//cckXVcIg.o
 .progmem.data.s_sensors
                0x00000ac6        0x8 /var/folders/kw/xp_j5cy50g5fm6r3w446d9rm0000gn/T//cckXVcIg.o
 .progmem.data.s_seconds
                0x00000ace        0x8 /var/folders/kw/xp_j5cy50g5fm6r3w446d9rm0000gn/T//cckXVcIg.o
 .progmem.data.s_rxpayload
                0x00000ad6        0xa /var/folders/kw/xp_j5cy50g5fm6r3w446d9rm0000gn/T//cckXVcIg.o
 .progmem.data.s_rng_get_uint8
                0x00000ae0        0xe /var/folders/kw/xp_j5cy50g5fm6r3w446d9rm0000gn/T//cckXVcIg.o
 .progmem.data.s_rng
                0x00000aee        0x4 /var/folders/kw/xp_j5cy50g5fm6r3w446d9rm0000gn/T//cckXVcIg.o
 .progmem.data.s_ringbuf_put
                0x00000af2        0xc /var/folders/kw/xp_j5cy50g5fm6r3w446d9rm0000gn/T//cckXVcIg.o
 .progmem.data.s_ringbuf_get
                0x00000afe        0xc /var/folders/kw/xp_j5cy50g5fm6r3w446d9rm0000gn/T//cckXVcIg.o
 .progmem.data.s_replyCbmt
                0x00000b0a        0xa /var/folders/kw/xp_j5cy50g5fm6r3w446d9rm0000gn/T//cckXVcIg.o
 .progmem.data.s_reconfig_Lc
                0x00000b14        0xc /var/folders/kw/xp_j5cy50g5fm6r3w446d9rm0000gn/T//cckXVcIg.o
 .progmem.data.s_readdata
                0x00000b20        0x9 /var/folders/kw/xp_j5cy50g5fm6r3w446d9rm0000gn/T//cckXVcIg.o
 .progmem.data.s_rand_r
                0x00000b29        0x7 /var/folders/kw/xp_j5cy50g5fm6r3w446d9rm0000gn/T//cckXVcIg.o
 .progmem.data.s_rand
                0x00000b30        0x5 /var/folders/kw/xp_j5cy50g5fm6r3w446d9rm0000gn/T//cckXVcIg.o
 .progmem.data.s_puts
                0x00000b35        0x5 /var/folders/kw/xp_j5cy50g5fm6r3w446d9rm0000gn/T//cckXVcIg.o
 .progmem.data.s_printf_P
                0x00000b3a        0x9 /var/folders/kw/xp_j5cy50g5fm6r3w446d9rm0000gn/T//cckXVcIg.o
 .progmem.data.s_printf
                0x00000b43        0x7 /var/folders/kw/xp_j5cy50g5fm6r3w446d9rm0000gn/T//cckXVcIg.o
 .progmem.data.s_printComponents
                0x00000b4a       0x10 /var/folders/kw/xp_j5cy50g5fm6r3w446d9rm0000gn/T//cckXVcIg.o
 .progmem.data.s_notifCbmt
                0x00000b5a        0xa /var/folders/kw/xp_j5cy50g5fm6r3w446d9rm0000gn/T//cckXVcIg.o
 .progmem.data.s_nbr_table_remove
                0x00000b64       0x11 /var/folders/kw/xp_j5cy50g5fm6r3w446d9rm0000gn/T//cckXVcIg.o
 .progmem.data.s_nbr_table_register
                0x00000b75       0x13 /var/folders/kw/xp_j5cy50g5fm6r3w446d9rm0000gn/T//cckXVcIg.o
 .progmem.data.s_nbr_table_next
                0x00000b88        0xf /var/folders/kw/xp_j5cy50g5fm6r3w446d9rm0000gn/T//cckXVcIg.o
 .progmem.data.s_nbr_table_head
                0x00000b97        0xf /var/folders/kw/xp_j5cy50g5fm6r3w446d9rm0000gn/T//cckXVcIg.o
 .progmem.data.s_nbr_table_get_lladdr
                0x00000ba6       0x15 /var/folders/kw/xp_j5cy50g5fm6r3w446d9rm0000gn/T//cckXVcIg.o
 .progmem.data.s_nbr_table_get_from_lladdr
                0x00000bbb       0x1a /var/folders/kw/xp_j5cy50g5fm6r3w446d9rm0000gn/T//cckXVcIg.o
 .progmem.data.s_nbr_table_add_lladdr
                0x00000bd5       0x15 /var/folders/kw/xp_j5cy50g5fm6r3w446d9rm0000gn/T//cckXVcIg.o
 .progmem.data.s_moteinit
                0x00000bea        0x9 /var/folders/kw/xp_j5cy50g5fm6r3w446d9rm0000gn/T//cckXVcIg.o
 .progmem.data.s_memset
                0x00000bf3        0x7 /var/folders/kw/xp_j5cy50g5fm6r3w446d9rm0000gn/T//cckXVcIg.o
 .progmem.data.s_memmove
                0x00000bfa        0x8 /var/folders/kw/xp_j5cy50g5fm6r3w446d9rm0000gn/T//cckXVcIg.o
 .progmem.data.s_memcpy_P
                0x00000c02        0x9 /var/folders/kw/xp_j5cy50g5fm6r3w446d9rm0000gn/T//cckXVcIg.o
 .progmem.data.s_memcpy_F
                0x00000c0b        0x9 /var/folders/kw/xp_j5cy50g5fm6r3w446d9rm0000gn/T//cckXVcIg.o
 .progmem.data.s_memcpy
                0x00000c14        0x7 /var/folders/kw/xp_j5cy50g5fm6r3w446d9rm0000gn/T//cckXVcIg.o
 .progmem.data.s_memcmp
                0x00000c1b        0x7 /var/folders/kw/xp_j5cy50g5fm6r3w446d9rm0000gn/T//cckXVcIg.o
 .progmem.data.s_ledtimer
                0x00000c22        0x9 /var/folders/kw/xp_j5cy50g5fm6r3w446d9rm0000gn/T//cckXVcIg.o
 .progmem.data.s_ldbuf
                0x00000c2b        0x6 /var/folders/kw/xp_j5cy50g5fm6r3w446d9rm0000gn/T//cckXVcIg.o
 .progmem.data.s_lcpEvPub
                0x00000c31        0x9 /var/folders/kw/xp_j5cy50g5fm6r3w446d9rm0000gn/T//cckXVcIg.o
 .progmem.data.s_lcLL
                0x00000c3a        0x5 /var/folders/kw/xp_j5cy50g5fm6r3w446d9rm0000gn/T//cckXVcIg.o
 .progmem.data.s_htonsa
                0x00000c3f        0x7 /var/folders/kw/xp_j5cy50g5fm6r3w446d9rm0000gn/T//cckXVcIg.o
 .progmem.data.s_getFP
                0x00000c46        0x6 /var/folders/kw/xp_j5cy50g5fm6r3w446d9rm0000gn/T//cckXVcIg.o
 .progmem.data.s_framer_802154
                0x00000c4c        0xe /var/folders/kw/xp_j5cy50g5fm6r3w446d9rm0000gn/T//cckXVcIg.o
 .progmem.data.s_fptr
                0x00000c5a        0x5 /var/folders/kw/xp_j5cy50g5fm6r3w446d9rm0000gn/T//cckXVcIg.o
 .progmem.data.s_evpTM
                0x00000c5f        0x6 /var/folders/kw/xp_j5cy50g5fm6r3w446d9rm0000gn/T//cckXVcIg.o
 .progmem.data.s_evpNM
                0x00000c65        0x6 /var/folders/kw/xp_j5cy50g5fm6r3w446d9rm0000gn/T//cckXVcIg.o
 .progmem.data.s_evpCM
                0x00000c6b        0x6 /var/folders/kw/xp_j5cy50g5fm6r3w446d9rm0000gn/T//cckXVcIg.o
 .progmem.data.s_error_check
                0x00000c71        0xc /var/folders/kw/xp_j5cy50g5fm6r3w446d9rm0000gn/T//cckXVcIg.o
 .progmem.data.s_ds6_neighbors
                0x00000c7d        0xe /var/folders/kw/xp_j5cy50g5fm6r3w446d9rm0000gn/T//cckXVcIg.o
 .progmem.data.s_doImageInit
                0x00000c8b        0xc /var/folders/kw/xp_j5cy50g5fm6r3w446d9rm0000gn/T//cckXVcIg.o
 .progmem.data.s_dn_write_uint32_t
                0x00000c97       0x12 /var/folders/kw/xp_j5cy50g5fm6r3w446d9rm0000gn/T//cckXVcIg.o
 .progmem.data.s_dn_write_uint16_t
                0x00000ca9       0x12 /var/folders/kw/xp_j5cy50g5fm6r3w446d9rm0000gn/T//cckXVcIg.o
 .progmem.data.s_dn_uart_txByte
                0x00000cbb        0xf /var/folders/kw/xp_j5cy50g5fm6r3w446d9rm0000gn/T//cckXVcIg.o
 .progmem.data.s_dn_uart_init
                0x00000cca        0xd /var/folders/kw/xp_j5cy50g5fm6r3w446d9rm0000gn/T//cckXVcIg.o
 .progmem.data.s_dn_serial_sendReply
                0x00000cd7       0x14 /var/folders/kw/xp_j5cy50g5fm6r3w446d9rm0000gn/T//cckXVcIg.o
 .progmem.data.s_dn_serial_mt_vars
                0x00000ceb       0x12 /var/folders/kw/xp_j5cy50g5fm6r3w446d9rm0000gn/T//cckXVcIg.o
 .progmem.data.s_dn_serial_mt_sendRequest
                0x00000cfd       0x19 /var/folders/kw/xp_j5cy50g5fm6r3w446d9rm0000gn/T//cckXVcIg.o
 .progmem.data.s_dn_serial_mt_rxHdlcFrame
                0x00000d16       0x19 /var/folders/kw/xp_j5cy50g5fm6r3w446d9rm0000gn/T//cckXVcIg.o
 .progmem.data.s_dn_serial_mt_init
                0x00000d2f       0x12 /var/folders/kw/xp_j5cy50g5fm6r3w446d9rm0000gn/T//cckXVcIg.o
 .progmem.data.s_dn_serial_mt_dispatch_response
                0x00000d41       0x1f /var/folders/kw/xp_j5cy50g5fm6r3w446d9rm0000gn/T//cckXVcIg.o
 .progmem.data.s_dn_read_uint32_t
                0x00000d60       0x11 /var/folders/kw/xp_j5cy50g5fm6r3w446d9rm0000gn/T//cckXVcIg.o
 .progmem.data.s_dn_read_uint16_t
                0x00000d71       0x11 /var/folders/kw/xp_j5cy50g5fm6r3w446d9rm0000gn/T//cckXVcIg.o
 .progmem.data.s_dn_ipmt_vars
                0x00000d82        0xd /var/folders/kw/xp_j5cy50g5fm6r3w446d9rm0000gn/T//cckXVcIg.o
 .progmem.data.s_dn_ipmt_sendTo_reply
                0x00000d8f       0x15 /var/folders/kw/xp_j5cy50g5fm6r3w446d9rm0000gn/T//cckXVcIg.o
 .progmem.data.s_dn_ipmt_sendTo
                0x00000da4        0xf /var/folders/kw/xp_j5cy50g5fm6r3w446d9rm0000gn/T//cckXVcIg.o
 .progmem.data.s_dn_ipmt_rxSerialRequest
                0x00000db3       0x18 /var/folders/kw/xp_j5cy50g5fm6r3w446d9rm0000gn/T//cckXVcIg.o
 .progmem.data.s_dn_ipmt_requestService_reply
                0x00000dcb       0x1d /var/folders/kw/xp_j5cy50g5fm6r3w446d9rm0000gn/T//cckXVcIg.o
 .progmem.data.s_dn_ipmt_requestService
                0x00000de8       0x17 /var/folders/kw/xp_j5cy50g5fm6r3w446d9rm0000gn/T//cckXVcIg.o
 .progmem.data.s_dn_ipmt_receive_notif
                0x00000dff       0x16 /var/folders/kw/xp_j5cy50g5fm6r3w446d9rm0000gn/T//cckXVcIg.o
 .progmem.data.s_dn_ipmt_openSocket_reply
                0x00000e15       0x19 /var/folders/kw/xp_j5cy50g5fm6r3w446d9rm0000gn/T//cckXVcIg.o
 .progmem.data.s_dn_ipmt_openSocket
                0x00000e2e       0x13 /var/folders/kw/xp_j5cy50g5fm6r3w446d9rm0000gn/T//cckXVcIg.o
 .progmem.data.s_dn_ipmt_join_reply
                0x00000e41       0x13 /var/folders/kw/xp_j5cy50g5fm6r3w446d9rm0000gn/T//cckXVcIg.o
 .progmem.data.s_dn_ipmt_join
                0x00000e54        0xd /var/folders/kw/xp_j5cy50g5fm6r3w446d9rm0000gn/T//cckXVcIg.o
 .progmem.data.s_dn_ipmt_init
                0x00000e61        0xd /var/folders/kw/xp_j5cy50g5fm6r3w446d9rm0000gn/T//cckXVcIg.o
 .progmem.data.s_dn_ipmt_getServiceInfo_reply
                0x00000e6e       0x1d /var/folders/kw/xp_j5cy50g5fm6r3w446d9rm0000gn/T//cckXVcIg.o
 .progmem.data.s_dn_ipmt_getServiceInfo
                0x00000e8b       0x17 /var/folders/kw/xp_j5cy50g5fm6r3w446d9rm0000gn/T//cckXVcIg.o
 .progmem.data.s_dn_ipmt_getParameter_moteStatus_reply
                0x00000ea2       0x26 /var/folders/kw/xp_j5cy50g5fm6r3w446d9rm0000gn/T//cckXVcIg.o
 .progmem.data.s_dn_ipmt_getParameter_moteStatus
                0x00000ec8       0x20 /var/folders/kw/xp_j5cy50g5fm6r3w446d9rm0000gn/T//cckXVcIg.o
 .progmem.data.s_dn_ipmt_getParameter_ipv6Address_reply
                0x00000ee8       0x27 /var/folders/kw/xp_j5cy50g5fm6r3w446d9rm0000gn/T//cckXVcIg.o
 .progmem.data.s_dn_ipmt_getParameter_ipv6Address
                0x00000f0f       0x21 /var/folders/kw/xp_j5cy50g5fm6r3w446d9rm0000gn/T//cckXVcIg.o
 .progmem.data.s_dn_ipmt_closeSocket_reply
                0x00000f30       0x1a /var/folders/kw/xp_j5cy50g5fm6r3w446d9rm0000gn/T//cckXVcIg.o
 .progmem.data.s_dn_ipmt_closeSocket
                0x00000f4a       0x14 /var/folders/kw/xp_j5cy50g5fm6r3w446d9rm0000gn/T//cckXVcIg.o
 .progmem.data.s_dn_ipmt_cancelTx
                0x00000f5e       0x11 /var/folders/kw/xp_j5cy50g5fm6r3w446d9rm0000gn/T//cckXVcIg.o
 .progmem.data.s_dn_ipmt_bindSocket_reply
                0x00000f6f       0x19 /var/folders/kw/xp_j5cy50g5fm6r3w446d9rm0000gn/T//cckXVcIg.o
 .progmem.data.s_dn_ipmt_bindSocket
                0x00000f88       0x13 /var/folders/kw/xp_j5cy50g5fm6r3w446d9rm0000gn/T//cckXVcIg.o
 .progmem.data.s_deployReply
                0x00000f9b        0xc /var/folders/kw/xp_j5cy50g5fm6r3w446d9rm0000gn/T//cckXVcIg.o
 .progmem.data.s_config_timeout
                0x00000fa7        0xf /var/folders/kw/xp_j5cy50g5fm6r3w446d9rm0000gn/T//cckXVcIg.o
 .progmem.data.s_clock_time
                0x00000fb6        0xb /var/folders/kw/xp_j5cy50g5fm6r3w446d9rm0000gn/T//cckXVcIg.o
 .progmem.data.s_clock_seconds
                0x00000fc1        0xe /var/folders/kw/xp_j5cy50g5fm6r3w446d9rm0000gn/T//cckXVcIg.o
 .progmem.data.s_clock_init
                0x00000fcf        0xb /var/folders/kw/xp_j5cy50g5fm6r3w446d9rm0000gn/T//cckXVcIg.o
 .progmem.data.s_clock_delay_msec
                0x00000fda       0x11 /var/folders/kw/xp_j5cy50g5fm6r3w446d9rm0000gn/T//cckXVcIg.o
 .progmem.data.s_chunk
                0x00000feb        0x6 /var/folders/kw/xp_j5cy50g5fm6r3w446d9rm0000gn/T//cckXVcIg.o
 .progmem.data.s_app_vars
                0x00000ff1        0x9 /var/folders/kw/xp_j5cy50g5fm6r3w446d9rm0000gn/T//cckXVcIg.o
 .progmem.data.s_api_timedout
                0x00000ffa        0xd /var/folders/kw/xp_j5cy50g5fm6r3w446d9rm0000gn/T//cckXVcIg.o
 .progmem.data.s_api_sendTo_reply
                0x00001007       0x11 /var/folders/kw/xp_j5cy50g5fm6r3w446d9rm0000gn/T//cckXVcIg.o
 .progmem.data.s_api_sendTo
                0x00001018        0xb /var/folders/kw/xp_j5cy50g5fm6r3w446d9rm0000gn/T//cckXVcIg.o
 .progmem.data.s_api_requestService_reply
                0x00001023       0x19 /var/folders/kw/xp_j5cy50g5fm6r3w446d9rm0000gn/T//cckXVcIg.o
 .progmem.data.s_api_requestService
                0x0000103c       0x13 /var/folders/kw/xp_j5cy50g5fm6r3w446d9rm0000gn/T//cckXVcIg.o
 .progmem.data.s_api_openSocket_reply
                0x0000104f       0x15 /var/folders/kw/xp_j5cy50g5fm6r3w446d9rm0000gn/T//cckXVcIg.o
 .progmem.data.s_api_openSocket
                0x00001064        0xf /var/folders/kw/xp_j5cy50g5fm6r3w446d9rm0000gn/T//cckXVcIg.o
 .progmem.data.s_api_join_reply
                0x00001073        0xf /var/folders/kw/xp_j5cy50g5fm6r3w446d9rm0000gn/T//cckXVcIg.o
 .progmem.data.s_api_join
                0x00001082        0x9 /var/folders/kw/xp_j5cy50g5fm6r3w446d9rm0000gn/T//cckXVcIg.o
 .progmem.data.s_api_get_ipv6addr_reply
                0x0000108b       0x17 /var/folders/kw/xp_j5cy50g5fm6r3w446d9rm0000gn/T//cckXVcIg.o
 .progmem.data.s_api_get_ipv6addr
                0x000010a2       0x11 /var/folders/kw/xp_j5cy50g5fm6r3w446d9rm0000gn/T//cckXVcIg.o
 .progmem.data.s_api_getServiceInfo_reply
                0x000010b3       0x19 /var/folders/kw/xp_j5cy50g5fm6r3w446d9rm0000gn/T//cckXVcIg.o
 .progmem.data.s_api_getServiceInfo
                0x000010cc       0x13 /var/folders/kw/xp_j5cy50g5fm6r3w446d9rm0000gn/T//cckXVcIg.o
 .progmem.data.s_api_getMoteStatus_reply
                0x000010df       0x18 /var/folders/kw/xp_j5cy50g5fm6r3w446d9rm0000gn/T//cckXVcIg.o
 .progmem.data.s_api_getMoteStatus
                0x000010f7       0x12 /var/folders/kw/xp_j5cy50g5fm6r3w446d9rm0000gn/T//cckXVcIg.o
 .progmem.data.s_api_closeSocket_reply
                0x00001109       0x16 /var/folders/kw/xp_j5cy50g5fm6r3w446d9rm0000gn/T//cckXVcIg.o
 .progmem.data.s_api_closeSocket
                0x0000111f       0x10 /var/folders/kw/xp_j5cy50g5fm6r3w446d9rm0000gn/T//cckXVcIg.o
 .progmem.data.s_api_bindSocket_reply
                0x0000112f       0x15 /var/folders/kw/xp_j5cy50g5fm6r3w446d9rm0000gn/T//cckXVcIg.o
 .progmem.data.s_api_bindSocket
                0x00001144        0xf /var/folders/kw/xp_j5cy50g5fm6r3w446d9rm0000gn/T//cckXVcIg.o
 .progmem.data.s__tf
                0x00001153        0x4 /var/folders/kw/xp_j5cy50g5fm6r3w446d9rm0000gn/T//cckXVcIg.o
 .progmem.data.s__r
                0x00001157        0x3 /var/folders/kw/xp_j5cy50g5fm6r3w446d9rm0000gn/T//cckXVcIg.o
 .progmem.data.s__p
                0x0000115a        0x3 /var/folders/kw/xp_j5cy50g5fm6r3w446d9rm0000gn/T//cckXVcIg.o
 .progmem.data.s__lpt
                0x0000115d        0x5 /var/folders/kw/xp_j5cy50g5fm6r3w446d9rm0000gn/T//cckXVcIg.o
 .progmem.data.s__lcc
                0x00001162        0x5 /var/folders/kw/xp_j5cy50g5fm6r3w446d9rm0000gn/T//cckXVcIg.o
 .progmem.data.s__div
                0x00001167        0x5 /var/folders/kw/xp_j5cy50g5fm6r3w446d9rm0000gn/T//cckXVcIg.o
 .progmem.data.s__call
                0x0000116c        0x6 /var/folders/kw/xp_j5cy50g5fm6r3w446d9rm0000gn/T//cckXVcIg.o
 .progmem.data.s___umulhisi3
                0x00001172        0xc /var/folders/kw/xp_j5cy50g5fm6r3w446d9rm0000gn/T//cckXVcIg.o
 .progmem.data.s___ultoa_invert
                0x0000117e        0xf /var/folders/kw/xp_j5cy50g5fm6r3w446d9rm0000gn/T//cckXVcIg.o
 .progmem.data.s___udivmodsi4
                0x0000118d        0xd /var/folders/kw/xp_j5cy50g5fm6r3w446d9rm0000gn/T//cckXVcIg.o
 .progmem.data.s___udivmodqi4
                0x0000119a        0xd /var/folders/kw/xp_j5cy50g5fm6r3w446d9rm0000gn/T//cckXVcIg.o
 .progmem.data.s___udivmodhi4
                0x000011a7        0xd /var/folders/kw/xp_j5cy50g5fm6r3w446d9rm0000gn/T//cckXVcIg.o
 .progmem.data.s___negsi2
                0x000011b4        0x9 /var/folders/kw/xp_j5cy50g5fm6r3w446d9rm0000gn/T//cckXVcIg.o
 .progmem.data.s___divmodsi4
                0x000011bd        0xc /var/folders/kw/xp_j5cy50g5fm6r3w446d9rm0000gn/T//cckXVcIg.o
 .progmem.data.s___divmodhi4
                0x000011c9        0xc /var/folders/kw/xp_j5cy50g5fm6r3w446d9rm0000gn/T//cckXVcIg.o
                0x000011d6                . = ALIGN (0x2)
 *fill*         0x000011d5        0x1 
 *(.jumptables)
 *(.jumptables*)
 *(.lowtext)
 *(.lowtext*)
                0x000011d6                __ctors_start = .
 *(.ctors)
                0x000011d6                __ctors_end = .
                0x000011d6                __dtors_start = .
 *(.dtors)
                0x000011d6                __dtors_end = .
 SORT(*)(.ctors)
 SORT(*)(.dtors)
 *(.init0)
 .init0         0x000011d6        0x0 /usr/local/CrossPack-AVR-20131216/lib/gcc/avr/4.8.1/../../../../avr/lib/avr51/crtm128rfa1.o
                0x000011d6                __init
 *(.init0)
 *(.init1)
 *(.init1)
 *(.init2)
 .init2         0x000011d6        0xc /usr/local/CrossPack-AVR-20131216/lib/gcc/avr/4.8.1/../../../../avr/lib/avr51/crtm128rfa1.o
 *(.init2)
 *(.init3)
 *(.init3)
 *(.init4)
 .init4         0x000011e2       0x1a /usr/local/CrossPack-AVR-20131216/lib/gcc/avr/4.8.1/avr51/libgcc.a(_copy_data.o)
                0x000011e2                __do_copy_data
 .init4         0x000011fc       0x10 /usr/local/CrossPack-AVR-20131216/lib/gcc/avr/4.8.1/avr51/libgcc.a(_clear_bss.o)
                0x000011fc                __do_clear_bss
 *(.init4)
 *(.init5)
 *(.init5)
 *(.init6)
 *(.init6)
 *(.init7)
 *(.init7)
 *(.init8)
 *(.init8)
 *(.init9)
 .init9         0x0000120c        0x6 /usr/local/CrossPack-AVR-20131216/lib/gcc/avr/4.8.1/../../../../avr/lib/avr51/crtm128rfa1.o
 *(.init9)
 *(.text)
 .text          0x00001212        0x4 /usr/local/CrossPack-AVR-20131216/lib/gcc/avr/4.8.1/../../../../avr/lib/avr51/crtm128rfa1.o
                0x00001212                __vector_65
                0x00001212                __vector_22
                0x00001212                __vector_28
                0x00001212                __vector_67
                0x00001212                __vector_1
                0x00001212                __vector_71
                0x00001212                __vector_34
                0x00001212                __vector_24
                0x00001212                __vector_12
                0x00001212                __vector_55
                0x00001212                __vector_69
                0x00001212                __vector_46
                0x00001212                __bad_interrupt
                0x00001212                __vector_6
                0x00001212                __vector_31
                0x00001212                __vector_35
                0x00001212                __vector_39
                0x00001212                __vector_3
                0x00001212                __vector_23
                0x00001212                __vector_68
                0x00001212                __vector_30
                0x00001212                __vector_45
                0x00001212                __vector_11
                0x00001212                __vector_54
                0x00001212                __vector_17
                0x00001212                __vector_19
                0x00001212                __vector_56
                0x00001212                __vector_7
                0x00001212                __vector_49
                0x00001212                __vector_41
                0x00001212                __vector_43
                0x00001212                __vector_27
                0x00001212                __vector_5
                0x00001212                __vector_33
                0x00001212                __vector_47
                0x00001212                __vector_52
                0x00001212                __vector_37
                0x00001212                __vector_4
                0x00001212                __vector_44
                0x00001212                __vector_51
                0x00001212                __vector_9
                0x00001212                __vector_2
                0x00001212                __vector_15
                0x00001212                __vector_66
                0x00001212                __vector_70
                0x00001212                __vector_29
                0x00001212                __vector_40
                0x00001212                __vector_8
                0x00001212                __vector_26
                0x00001212                __vector_48
                0x00001212                __vector_14
                0x00001212                __vector_53
                0x00001212                __vector_10
                0x00001212                __vector_50
                0x00001212                __vector_16
                0x00001212                __vector_18
                0x00001212                __vector_20
                0x00001212                __vector_42
                0x00001212                __vector_38
                0x00001216                . = ALIGN (0x2)
 *(.text.*)
 .text.avr-libc
                0x00001216        0x6 /usr/local/CrossPack-AVR-20131216/lib/gcc/avr/4.8.1/../../../../avr/lib/avr51/libc.a(exit.o)
                0x00001216                exit
 .text.process_thread_looci
                0x0000121c       0x78 loociCore.co
 .text.process_thread_temp_sample_P
                0x00001294       0x12 obj_avr-zigduino/tempSensor.o
 .text.time     0x000012a6       0x82 obj_avr-zigduino/tempSensor.o
 .text.activate
                0x00001328       0x34 obj_avr-zigduino/tempSensor.o
 .text.temp_sample_reg
                0x0000135c        0x6 obj_avr-zigduino/tempSensor.o
 .text.doImageInit
                0x00001362       0x44 obj_avr-zigduino/image-init.o
                0x00001362                doImageInit
 .text.process_thread_looci_component_store
                0x000013a6      0x2fe obj_avr-zigduino/codebaseDeploymentSM.o
 .text.lc_cstore_unload
                0x000016a4      0x10a obj_avr-zigduino/codebaseDeploymentSM.o
                0x000016a4                lc_cstore_unload
 .text.lc_printByteArray
                0x000017ae       0x66 obj_avr-zigduino/debug.o
                0x000017ae                lc_printByteArray
 .text.lc_printHexArray
                0x00001814       0xa4 obj_avr-zigduino/debug.o
                0x00001814                lc_printHexArray
 .text.looci_init
                0x000018b8       0x44 obj_avr-zigduino/looci.o
                0x000018b8                looci_init
 .text.looci_cbMan_get_first_codebase
                0x000018fc        0x8 obj_avr-zigduino/codebaseManager.o
 .text.looci_cbMan_init
                0x00001904       0x34 obj_avr-zigduino/codebaseManager.o
                0x00001904                looci_cbMan_init
 .text.looci_cbMan_get_codebase
                0x00001938       0x26 obj_avr-zigduino/codebaseManager.o
                0x00001938                looci_cbMan_get_codebase
 .text._r       0x0000195e       0x70 obj_avr-zigduino/codebaseManager.o
                0x0000195e                _r
 .text.looci_cbMan_instantiate_component
                0x000019ce       0x1e obj_avr-zigduino/codebaseManager.o
                0x000019ce                looci_cbMan_instantiate_component
 .text.looci_cbMan_deploy_component
                0x000019ec        0x4 obj_avr-zigduino/codebaseManager.o
                0x000019ec                looci_cbMan_deploy_component
 .text.looci_cbMan_undeploy_component
                0x000019f0       0x60 obj_avr-zigduino/codebaseManager.o
                0x000019f0                looci_cbMan_undeploy_component
 .text.looci_cbMan_get_cb_ids
                0x00001a50       0x3c obj_avr-zigduino/codebaseManager.o
                0x00001a50                looci_cbMan_get_cb_ids
 .text.looci_cbMan_getcodebasetype
                0x00001a8c       0x42 obj_avr-zigduino/codebaseManager.o
                0x00001a8c                looci_cbMan_getcodebasetype
 .text.looci_cbMan_getcodebaseids_by_type
                0x00001ace       0x72 obj_avr-zigduino/codebaseManager.o
                0x00001ace                looci_cbMan_getcodebaseids_by_type
 .text.printVectorMap.5371
                0x00001b40        0x2 obj_avr-zigduino/componentManager.o
 .text.filter_cmp_id.5378
                0x00001b42       0x12 obj_avr-zigduino/componentManager.o
 .text.looci_cmpMan_callProcess
                0x00001b54       0x46 obj_avr-zigduino/componentManager.o
 .text.filter_process.5451
                0x00001b9a        0xe obj_avr-zigduino/componentManager.o
 .text.filter_cmpIds_by_cb_id
                0x00001ba8       0x48 obj_avr-zigduino/componentManager.o
 .text.filter_get_cmp_ids
                0x00001bf0       0x28 obj_avr-zigduino/componentManager.o
 .text.looci_cmpMan_cp_events
                0x00001c18       0x4a obj_avr-zigduino/componentManager.o
 .text.getPropertyOfComponent.isra.0
                0x00001c62       0xcc obj_avr-zigduino/componentManager.o
 .text.printComponents
                0x00001d2e       0x10 obj_avr-zigduino/componentManager.o
                0x00001d2e                printComponents
 .text.looci_cmpMan_component_get
                0x00001d3e       0x28 obj_avr-zigduino/componentManager.o
                0x00001d3e                looci_cmpMan_component_get
 .text.looci_cmpMan_component_start
                0x00001d66       0x5e obj_avr-zigduino/componentManager.o
                0x00001d66                looci_cmpMan_component_start
 .text.looci_cmpMan_component_stop
                0x00001dc4       0x66 obj_avr-zigduino/componentManager.o
                0x00001dc4                looci_cmpMan_component_stop
 .text.looci_cmpMan_init
                0x00001e2a        0x8 obj_avr-zigduino/componentManager.o
                0x00001e2a                looci_cmpMan_init
 .text.looci_cmpMan_sendEvent
                0x00001e32       0x1a obj_avr-zigduino/componentManager.o
                0x00001e32                looci_cmpMan_sendEvent
 .text.looci_cmpMan_instantiateComponent
                0x00001e4c      0x10c obj_avr-zigduino/componentManager.o
                0x00001e4c                looci_cmpMan_instantiateComponent
 .text.looci_cmpMan_destroyComponent
                0x00001f58       0x8c obj_avr-zigduino/componentManager.o
                0x00001f58                looci_cmpMan_destroyComponent
 .text.looci_cmpMan_component_get_by_process
                0x00001fe4        0xe obj_avr-zigduino/componentManager.o
                0x00001fe4                looci_cmpMan_component_get_by_process
 .text.looci_cmpMan_getComponents
                0x00001ff2        0xe obj_avr-zigduino/componentManager.o
                0x00001ff2                looci_cmpMan_getComponents
 .text.looci_cmpMan_getProperty
                0x00002000       0x98 obj_avr-zigduino/componentManager.o
                0x00002000                looci_cmpMan_getProperty
 .text.looci_cmpMan_setProperty
                0x00002098       0xac obj_avr-zigduino/componentManager.o
                0x00002098                looci_cmpMan_setProperty
 .text.looci_cmpMan_getProperties
                0x00002144       0xba obj_avr-zigduino/componentManager.o
                0x00002144                looci_cmpMan_getProperties
 .text.looci_cmpMan_getPropertyInfo
                0x000021fe       0x98 obj_avr-zigduino/componentManager.o
                0x000021fe                looci_cmpMan_getPropertyInfo
 .text.looci_cmpMan_getInterfaces
                0x00002296       0x36 obj_avr-zigduino/componentManager.o
                0x00002296                looci_cmpMan_getInterfaces
 .text.looci_cmpMan_getReceptacles
                0x000022cc       0x36 obj_avr-zigduino/componentManager.o
                0x000022cc                looci_cmpMan_getReceptacles
 .text.looci_cmpMan_getcompids_by_cb_id
                0x00002302       0x30 obj_avr-zigduino/componentManager.o
                0x00002302                looci_cmpMan_getcompids_by_cb_id
 .text.looci_cmpMan_destroyAllComponents
                0x00002332       0x58 obj_avr-zigduino/componentManager.o
                0x00002332                looci_cmpMan_destroyAllComponents
 .text.looci_cmpMan_get_cb_id_of_comp_id
                0x0000238a       0x28 obj_avr-zigduino/componentManager.o
                0x0000238a                looci_cmpMan_get_cb_id_of_comp_id
 .text.looci_cmpMan_get_comp_type
                0x000023b2       0x40 obj_avr-zigduino/componentManager.o
                0x000023b2                looci_cmpMan_get_comp_type
 .text.looci_cmpMan_get_comp_ids
                0x000023f2       0x18 obj_avr-zigduino/componentManager.o
                0x000023f2                looci_cmpMan_get_comp_ids
 .text.looci_cmpMan_getstate
                0x0000240a       0x20 obj_avr-zigduino/componentManager.o
                0x0000240a                looci_cmpMan_getstate
 .text.looci_cmpMan_hasReceptacle
                0x0000242a       0x62 obj_avr-zigduino/componentManager.o
                0x0000242a                looci_cmpMan_hasReceptacle
 .text.looci_cmpMan_hasInterface
                0x0000248c       0x62 obj_avr-zigduino/componentManager.o
                0x0000248c                looci_cmpMan_hasInterface
 .text.lcLL     0x000024ee       0x20 obj_avr-zigduino/componentManager.o
                0x000024ee                lcLL
 .text._call    0x0000250e       0xba obj_avr-zigduino/componentManager.o
                0x0000250e                _call
 .text._lcc     0x000025c8       0x2e obj_avr-zigduino/componentManager.o
                0x000025c8                _lcc
 .text.rng      0x000025f6       0x16 obj_avr-zigduino/comp_services.o
                0x000025f6                rng
 .text.ev_get_header_index
                0x0000260c       0x32 obj_avr-zigduino/event.o
                0x0000260c                ev_get_header_index
 .text.ev_has_header
                0x0000263e       0x10 obj_avr-zigduino/event.o
                0x0000263e                ev_has_header
 .text.ev_add_header
                0x0000264e       0x68 obj_avr-zigduino/event.o
                0x0000264e                ev_add_header
 .text.ev_get_totalHeaderSize
                0x000026b6        0x8 obj_avr-zigduino/event.o
                0x000026b6                ev_get_totalHeaderSize
 .text.ev_getHeaderByte
                0x000026be       0x42 obj_avr-zigduino/event.o
                0x000026be                ev_getHeaderByte
 .text.ev_getHeaderBit
                0x00002700       0x3a obj_avr-zigduino/event.o
                0x00002700                ev_getHeaderBit
 .text.ev_fill_event_from_byte_array
                0x0000273a       0x80 obj_avr-zigduino/event.o
                0x0000273a                ev_fill_event_from_byte_array
 .text.ev_fill_byte_array_from_event
                0x000027ba       0x64 obj_avr-zigduino/event.o
                0x000027ba                ev_fill_byte_array_from_event
 .text.evpCM    0x0000281e       0x14 obj_avr-zigduino/event.o
                0x0000281e                evpCM
 .text.evpNM    0x00002832       0x14 obj_avr-zigduino/event.o
                0x00002832                evpNM
 .text.evpTM    0x00002846       0x1c obj_avr-zigduino/event.o
                0x00002846                evpTM
 .text.uwLc.5473
                0x00002862       0x1e obj_avr-zigduino/eventBus.o
 .text.uwTo.5477
                0x00002880       0x12 obj_avr-zigduino/eventBus.o
 .text.uwFrom.5481
                0x00002892       0x12 obj_avr-zigduino/eventBus.o
 .text.filter_get_local_wire.5488
                0x000028a4       0x74 obj_avr-zigduino/eventBus.o
 .text.filter_get_out_wire.5495
                0x00002918       0x74 obj_avr-zigduino/eventBus.o
 .text.filter_get_inc_wire.5502
                0x0000298c       0x6e obj_avr-zigduino/eventBus.o
 .text.postEventToNetwork
                0x000029fa       0x1a obj_avr-zigduino/eventBus.o
 .text.postEventToInstance
                0x00002a14       0x76 obj_avr-zigduino/eventBus.o
 .text.process_thread_looci_event_manager
                0x00002a8a       0xd8 obj_avr-zigduino/eventBus.o
 .text.dispatch_local
                0x00002b62       0x42 obj_avr-zigduino/eventBus.o
 .text.dispatch_remote_to
                0x00002ba4       0x40 obj_avr-zigduino/eventBus.o
 .text.dispatch_remote_from
                0x00002be4       0x4c obj_avr-zigduino/eventBus.o
 .text.lc_em_getCurrentEvent
                0x00002c30        0xa obj_avr-zigduino/eventBus.o
                0x00002c30                lc_em_getCurrentEvent
 .text._p       0x00002c3a       0xb6 obj_avr-zigduino/eventBus.o
                0x00002c3a                _p
 .text.lcpEvPub
                0x00002cf0        0x4 obj_avr-zigduino/eventBus.o
                0x00002cf0                lcpEvPub
 .text.looci_event_handle_remote_event
                0x00002cf4       0x72 obj_avr-zigduino/eventBus.o
                0x00002cf4                looci_event_handle_remote_event
 .text.events_add_local_subscription
                0x00002d66       0x68 obj_avr-zigduino/eventBus.o
                0x00002d66                events_add_local_subscription
 .text.events_add_remote_subscription_to
                0x00002dce       0x4c obj_avr-zigduino/eventBus.o
                0x00002dce                events_add_remote_subscription_to
 .text.events_add_remote_subscription_from
                0x00002e1a       0x42 obj_avr-zigduino/eventBus.o
                0x00002e1a                events_add_remote_subscription_from
 .text.events_remove_local_subscription
                0x00002e5c       0x16 obj_avr-zigduino/eventBus.o
                0x00002e5c                events_remove_local_subscription
 .text.events_remove_remote_subscription_to
                0x00002e72       0x16 obj_avr-zigduino/eventBus.o
                0x00002e72                events_remove_remote_subscription_to
 .text.events_remove_remote_subscription_from
                0x00002e88       0x16 obj_avr-zigduino/eventBus.o
                0x00002e88                events_remove_remote_subscription_from
 .text.events_unwire_component
                0x00002e9e       0x46 obj_avr-zigduino/eventBus.o
                0x00002e9e                events_unwire_component
 .text.events_getlocalwires
                0x00002ee4       0x18 obj_avr-zigduino/eventBus.o
                0x00002ee4                events_getlocalwires
 .text.events_getremotewires_to
                0x00002efc       0x18 obj_avr-zigduino/eventBus.o
                0x00002efc                events_getremotewires_to
 .text.events_getremotewires_from
                0x00002f14       0x18 obj_avr-zigduino/eventBus.o
                0x00002f14                events_getremotewires_from
 .text.interceptFromComponent
                0x00002f2c       0x76 obj_avr-zigduino/triggermodule.o
 .text.interceptFromNetwork
                0x00002fa2       0x20 obj_avr-zigduino/triggermodule.o
 .text.lc_init_triggermodule
                0x00002fc2        0xc obj_avr-zigduino/triggermodule.o
                0x00002fc2                lc_init_triggermodule
 .text.lc_int_init
                0x00002fce        0x8 obj_avr-zigduino/interceptor.o
                0x00002fce                lc_int_init
 .text.lc_intercept
                0x00002fd6       0x46 obj_avr-zigduino/interceptor.o
                0x00002fd6                lc_intercept
 .text.lc_int_addModule
                0x0000301c       0x46 obj_avr-zigduino/interceptor.o
                0x0000301c                lc_int_addModule
 .text.vector_match_filter_func
                0x00003062       0x26 obj_avr-zigduino/vector.o
 .text.vector_init
                0x00003088       0x38 obj_avr-zigduino/vector.o
                0x00003088                vector_init
 .text.vector_len
                0x000030c0        0x6 obj_avr-zigduino/vector.o
                0x000030c0                vector_len
 .text.vector_createElement
                0x000030c6       0x92 obj_avr-zigduino/vector.o
                0x000030c6                vector_createElement
 .text.vector_add
                0x00003158       0x34 obj_avr-zigduino/vector.o
                0x00003158                vector_add
 .text.vector_get
                0x0000318c       0x36 obj_avr-zigduino/vector.o
                0x0000318c                vector_get
 .text.vector_remove
                0x000031c2      0x120 obj_avr-zigduino/vector.o
                0x000031c2                vector_remove
 .text.vector_nextEl
                0x000032e2       0x5c obj_avr-zigduino/vector.o
                0x000032e2                vector_nextEl
 .text.vector_filter
                0x0000333e       0x48 obj_avr-zigduino/vector.o
                0x0000333e                vector_filter
 .text.vector_map
                0x00003386       0x3a obj_avr-zigduino/vector.o
                0x00003386                vector_map
 .text.vector_rm_filter
                0x000033c0       0x64 obj_avr-zigduino/vector.o
                0x000033c0                vector_rm_filter
 .text.vector_remove_el
                0x00003424       0x2c obj_avr-zigduino/vector.o
                0x00003424                vector_remove_el
 .text.vector_get_el
                0x00003450       0x2a obj_avr-zigduino/vector.o
                0x00003450                vector_get_el
 .text.mmem_alloc
                0x0000347a       0x5e obj_avr-zigduino/mmem.o
                0x0000347a                mmem_alloc
 .text.mmem_free
                0x000034d8       0x76 obj_avr-zigduino/mmem.o
                0x000034d8                mmem_free
 .text.mmem_init
                0x0000354e       0x16 obj_avr-zigduino/mmem.o
                0x0000354e                mmem_init
 .text.htonsa   0x00003564       0x1c obj_avr-zigduino/utils.o
                0x00003564                htonsa
 .text.memcpy_F
                0x00003580       0x20 obj_avr-zigduino/utils.o
                0x00003580                memcpy_F
 .text.strLen_F
                0x000035a0       0x28 obj_avr-zigduino/utils.o
                0x000035a0                strLen_F
 .text.shortLen_F
                0x000035c8       0x26 obj_avr-zigduino/utils.o
                0x000035c8                shortLen_F
 .text.shortcmp_F
                0x000035ee       0x32 obj_avr-zigduino/utils.o
                0x000035ee                shortcmp_F
 .text.strcpy_F
                0x00003620       0x54 obj_avr-zigduino/utils.o
                0x00003620                strcpy_F
 .text.strcmp_F
                0x00003674       0x38 obj_avr-zigduino/utils.o
                0x00003674                strcmp_F
 .text.getFP    0x000036ac       0x2c obj_avr-zigduino/utils.o
                0x000036ac                getFP
 .text._lpt     0x000036d8       0x6a obj_avr-zigduino/utils.o
                0x000036d8                _lpt
 .text.xEnc     0x00003742       0x7a obj_avr-zigduino/hexCoding.o
                0x00003742                xEnc
 .text._tf      0x000037bc       0x42 obj_avr-zigduino/timer_utils.o
                0x000037bc                _tf
 .text.smreceive
                0x000037fe       0x68 obj_avr-zigduino/networking.o
                0x000037fe                smreceive
 .text.process_thread_looci_networking_framework
                0x00003866       0x56 obj_avr-zigduino/networking.o
 .text.looci_nf_send_event
                0x000038bc       0x72 obj_avr-zigduino/networking.o
                0x000038bc                looci_nf_send_event
 .text.peer_init
                0x0000392e       0x62 obj_avr-zigduino/peers.o
                0x0000392e                peer_init
 .text.peer_add
                0x00003990       0x48 obj_avr-zigduino/peers.o
                0x00003990                peer_add
 .text.peer_get_addr
                0x000039d8       0x40 obj_avr-zigduino/peers.o
                0x000039d8                peer_get_addr
 .text.peer_get_id
                0x00003a18       0x54 obj_avr-zigduino/peers.o
                0x00003a18                peer_get_id
 .text.peer_get_id_or_add
                0x00003a6c       0x16 obj_avr-zigduino/peers.o
                0x00003a6c                peer_get_id_or_add
 .text.readdata
                0x00003a82       0x16 obj_avr-zigduino/smartmesh.o
                0x00003a82                readdata
 .text.replyCbmt
                0x00003a98        0xc obj_avr-zigduino/smartmesh.o
                0x00003a98                replyCbmt
 .text.api_closeSocket_reply
                0x00003aa4        0xe obj_avr-zigduino/smartmesh.o
                0x00003aa4                api_closeSocket_reply
 .text.api_join_reply
                0x00003ab2        0x8 obj_avr-zigduino/smartmesh.o
                0x00003ab2                api_join_reply
 .text.api_requestService_reply
                0x00003aba       0x16 obj_avr-zigduino/smartmesh.o
                0x00003aba                api_requestService_reply
 .text.api_openSocket_reply
                0x00003ad0       0x2a obj_avr-zigduino/smartmesh.o
                0x00003ad0                api_openSocket_reply
 .text.api_bindSocket_reply
                0x00003afa       0x16 obj_avr-zigduino/smartmesh.o
                0x00003afa                api_bindSocket_reply
 .text.api_get_ipv6addr_reply
                0x00003b10       0x1c obj_avr-zigduino/smartmesh.o
                0x00003b10                api_get_ipv6addr_reply
 .text.api_sendTo_reply
                0x00003b2c       0x1e obj_avr-zigduino/smartmesh.o
                0x00003b2c                api_sendTo_reply
 .text.notifCbmt
                0x00003b4a       0xc2 obj_avr-zigduino/smartmesh.o
                0x00003b4a                notifCbmt
 .text.api_getMoteStatus_reply
                0x00003c0c       0x4c obj_avr-zigduino/smartmesh.o
                0x00003c0c                api_getMoteStatus_reply
 .text.api_getServiceInfo_reply
                0x00003c58       0x50 obj_avr-zigduino/smartmesh.o
                0x00003c58                api_getServiceInfo_reply
 .text.error_check
                0x00003ca8        0xe obj_avr-zigduino/smartmesh.o
                0x00003ca8                error_check
 .text.dn_uart_init
                0x00003cb6       0x1c obj_avr-zigduino/smartmesh.o
                0x00003cb6                dn_uart_init
 .text.dn_uart_txByte
                0x00003cd2        0x8 obj_avr-zigduino/smartmesh.o
                0x00003cd2                dn_uart_txByte
 .text.api_getMoteStatus
                0x00003cda       0x2a obj_avr-zigduino/smartmesh.o
                0x00003cda                api_getMoteStatus
 .text.api_timedout
                0x00003d04        0x6 obj_avr-zigduino/smartmesh.o
                0x00003d04                api_timedout
 .text.moteinit
                0x00003d0a       0x66 obj_avr-zigduino/smartmesh.o
                0x00003d0a                moteinit
 .text.api_join
                0x00003d70       0x2a obj_avr-zigduino/smartmesh.o
                0x00003d70                api_join
 .text.api_getServiceInfo
                0x00003d9a       0x30 obj_avr-zigduino/smartmesh.o
                0x00003d9a                api_getServiceInfo
 .text.api_requestService
                0x00003dca       0x4a obj_avr-zigduino/smartmesh.o
                0x00003dca                api_requestService
 .text.api_openSocket
                0x00003e14       0x2c obj_avr-zigduino/smartmesh.o
                0x00003e14                api_openSocket
 .text.api_bindSocket
                0x00003e40       0x36 obj_avr-zigduino/smartmesh.o
                0x00003e40                api_bindSocket
 .text.api_sendTo
                0x00003e76       0x80 obj_avr-zigduino/smartmesh.o
                0x00003e76                api_sendTo
 .text.api_get_ipv6addr
                0x00003ef6       0x16 obj_avr-zigduino/smartmesh.o
                0x00003ef6                api_get_ipv6addr
 .text.api_closeSocket
                0x00003f0c       0x1a obj_avr-zigduino/smartmesh.o
                0x00003f0c                api_closeSocket
 .text.process_thread_looci_smartmeship
                0x00003f26       0xda obj_avr-zigduino/smartmesh.o
 .text.lc_rc_func
                0x00004000       0x34 obj_avr-zigduino/runtime_control_local.o
                0x00004000                lc_rc_func
 .text.lc_is_func
                0x00004034       0x34 obj_avr-zigduino/introspection_local.o
                0x00004034                lc_is_func
 .text.cmd_install
                0x00004068        0x8 obj_avr-zigduino/reconfigurationEngine.o
 .text.cmd_remove
                0x00004070       0x36 obj_avr-zigduino/reconfigurationEngine.o
 .text.cmd_instantiate
                0x000040a6       0x3c obj_avr-zigduino/reconfigurationEngine.o
 .text.cmd_destroy
                0x000040e2       0x36 obj_avr-zigduino/reconfigurationEngine.o
 .text.cmd_start
                0x00004118       0x36 obj_avr-zigduino/reconfigurationEngine.o
 .text.cmd_stop
                0x0000414e       0x36 obj_avr-zigduino/reconfigurationEngine.o
 .text.cmd_wire_local
                0x00004184       0x48 obj_avr-zigduino/reconfigurationEngine.o
 .text.cmd_reset_wirings
                0x000041cc       0x36 obj_avr-zigduino/reconfigurationEngine.o
 .text.cmd_unwire_local
                0x00004202       0x48 obj_avr-zigduino/reconfigurationEngine.o
 .text.cmd_get_codebases_all
                0x0000424a       0x42 obj_avr-zigduino/reconfigurationEngine.o
 .text.cmd_get_codebase_type
                0x0000428c       0x48 obj_avr-zigduino/reconfigurationEngine.o
 .text.cmd_get_components_by_cb_id
                0x000042d4       0x48 obj_avr-zigduino/reconfigurationEngine.o
 .text.cmd_get_cb_id_of_cmp_id
                0x0000431c       0x3c obj_avr-zigduino/reconfigurationEngine.o
 .text.cmd_get_component_type
                0x00004358       0x48 obj_avr-zigduino/reconfigurationEngine.o
 .text.cmd_get_components_all
                0x000043a0       0x42 obj_avr-zigduino/reconfigurationEngine.o
 .text.cmd_get_state
                0x000043e2       0x3c obj_avr-zigduino/reconfigurationEngine.o
 .text.cmd_get_property
                0x0000441e       0x60 obj_avr-zigduino/reconfigurationEngine.o
 .text.cmd_get_propertyInfo
                0x0000447e       0x5a obj_avr-zigduino/reconfigurationEngine.o
 .text.cmd_get_platform_type
                0x000044d8        0xe obj_avr-zigduino/reconfigurationEngine.o
 .text.process_thread_reconfig_P
                0x000044e6       0x12 obj_avr-zigduino/reconfigurationEngine.o
 .text.cmd_get_codebase_by_type
                0x000044f8       0x62 obj_avr-zigduino/reconfigurationEngine.o
 .text.cmd_set_property
                0x0000455a       0x74 obj_avr-zigduino/reconfigurationEngine.o
 .text.cmd_get_rem_from_wire
                0x000045ce      0x10c obj_avr-zigduino/reconfigurationEngine.o
 .text.cmd_get_rem_to_wire
                0x000046da      0x10c obj_avr-zigduino/reconfigurationEngine.o
 .text.cmd_get_local_wire
                0x000047e6       0xc8 obj_avr-zigduino/reconfigurationEngine.o
 .text.cmd_get_interfaces
                0x000048ae       0x56 obj_avr-zigduino/reconfigurationEngine.o
 .text.cmd_get_receptacles
                0x00004904       0x56 obj_avr-zigduino/reconfigurationEngine.o
 .text.cmd_get_properties
                0x0000495a       0x5e obj_avr-zigduino/reconfigurationEngine.o
 .text.cmd_unwire_remote_from
                0x000049b8       0x54 obj_avr-zigduino/reconfigurationEngine.o
 .text.cmd_unwire_remote_to
                0x00004a0c       0x4a obj_avr-zigduino/reconfigurationEngine.o
 .text.cmd_wire_remote_from
                0x00004a56       0x56 obj_avr-zigduino/reconfigurationEngine.o
 .text.cmd_wire_remote_to
                0x00004aac       0x4c obj_avr-zigduino/reconfigurationEngine.o
 .text.doCommand
                0x00004af8       0xb0 obj_avr-zigduino/reconfigurationEngine.o
 .text.on_event
                0x00004ba8       0xa6 obj_avr-zigduino/reconfigurationEngine.o
 .text.reconfig_reg
                0x00004c4e        0x8 obj_avr-zigduino/reconfigurationEngine.o
 .text.lc_man_init_reconfigEngine
                0x00004c56       0x12 obj_avr-zigduino/reconfigurationEngine.o
                0x00004c56                lc_man_init_reconfigEngine
 .text.call_process.part.0
                0x00004c68       0x48 contiki-avr-zigduino.a(process.o)
 .text.call_process
                0x00004cb0        0xa contiki-avr-zigduino.a(process.o)
 .text.exit_process
                0x00004cba       0xca contiki-avr-zigduino.a(process.o)
 .text.do_poll  0x00004d84       0x3c contiki-avr-zigduino.a(process.o)
 .text.process_alloc_event
                0x00004dc0        0xe contiki-avr-zigduino.a(process.o)
                0x00004dc0                process_alloc_event
 .text.process_exit
                0x00004dce        0xa contiki-avr-zigduino.a(process.o)
                0x00004dce                process_exit
 .text.process_init
                0x00004dd8       0x20 contiki-avr-zigduino.a(process.o)
                0x00004dd8                process_init
 .text.process_run
                0x00004df8       0xbe contiki-avr-zigduino.a(process.o)
                0x00004df8                process_run
 .text.process_post
                0x00004eb6       0x3c contiki-avr-zigduino.a(process.o)
                0x00004eb6                process_post
 .text.process_post_synch
                0x00004ef2       0x1c contiki-avr-zigduino.a(process.o)
                0x00004ef2                process_post_synch
 .text.process_start
                0x00004f0e       0x40 contiki-avr-zigduino.a(process.o)
                0x00004f0e                process_start
 .text.process_poll
                0x00004f4e       0x18 contiki-avr-zigduino.a(process.o)
                0x00004f4e                process_poll
 .text.seek_read
                0x00004f66       0x2e contiki-avr-zigduino.a(elfloader.o)
 .text.unlikely.find_local_symbol
                0x00004f94       0xd2 contiki-avr-zigduino.a(elfloader.o)
 .text.unlikely.relocate_section.isra.0
                0x00005066      0x246 contiki-avr-zigduino.a(elfloader.o)
 .text.elfloader_load
                0x000052ac      0xb20 contiki-avr-zigduino.a(elfloader.o)
                0x000052ac                elfloader_load
 .text.elfloader_unload
                0x00005dcc       0x16 contiki-avr-zigduino.a(elfloader.o)
                0x00005dcc                elfloader_unload
 .text.memb_init
                0x00005de2       0x3e contiki-avr-zigduino.a(memb.o)
                0x00005de2                memb_init
 .text.memb_alloc
                0x00005e20       0x4a contiki-avr-zigduino.a(memb.o)
                0x00005e20                memb_alloc
 .text.memb_free
                0x00005e6a       0x4a contiki-avr-zigduino.a(memb.o)
                0x00005e6a                memb_free
 .text.memb_inmemb
                0x00005eb4       0x3a contiki-avr-zigduino.a(memb.o)
                0x00005eb4                memb_inmemb
 .text.list_init
                0x00005eee        0x8 contiki-avr-zigduino.a(list.o)
                0x00005eee                list_init
 .text.list_head
                0x00005ef6        0x8 contiki-avr-zigduino.a(list.o)
                0x00005ef6                list_head
 .text.list_tail
                0x00005efe       0x20 contiki-avr-zigduino.a(list.o)
                0x00005efe                list_tail
 .text.list_remove
                0x00005f1e       0x36 contiki-avr-zigduino.a(list.o)
                0x00005f1e                list_remove
 .text.list_add
                0x00005f54       0x2e contiki-avr-zigduino.a(list.o)
                0x00005f54                list_add
 .text.list_push
                0x00005f82       0x26 contiki-avr-zigduino.a(list.o)
                0x00005f82                list_push
 .text.list_length
                0x00005fa8       0x1a contiki-avr-zigduino.a(list.o)
                0x00005fa8                list_length
 .text.list_insert
                0x00005fc2       0x1a contiki-avr-zigduino.a(list.o)
                0x00005fc2                list_insert
 .text.list_item_next
                0x00005fdc       0x12 contiki-avr-zigduino.a(list.o)
                0x00005fdc                list_item_next
 .text.update_time
                0x00005fee       0x64 contiki-avr-zigduino.a(etimer.o)
 .text.etimer_request_poll
                0x00006052        0x8 contiki-avr-zigduino.a(etimer.o)
                0x00006052                etimer_request_poll
 .text.process_thread_etimer_process
                0x0000605a       0xfe contiki-avr-zigduino.a(etimer.o)
 .text.add_timer
                0x00006158       0x5c contiki-avr-zigduino.a(etimer.o)
 .text.etimer_set
                0x000061b4       0x14 contiki-avr-zigduino.a(etimer.o)
                0x000061b4                etimer_set
 .text.etimer_reset
                0x000061c8       0x14 contiki-avr-zigduino.a(etimer.o)
                0x000061c8                etimer_reset
 .text.etimer_restart
                0x000061dc       0x14 contiki-avr-zigduino.a(etimer.o)
                0x000061dc                etimer_restart
 .text.etimer_adjust
                0x000061f0       0x10 contiki-avr-zigduino.a(etimer.o)
                0x000061f0                etimer_adjust
 .text.etimer_expired
                0x00006200       0x16 contiki-avr-zigduino.a(etimer.o)
                0x00006200                etimer_expired
 .text.etimer_pending
                0x00006216       0x16 contiki-avr-zigduino.a(etimer.o)
                0x00006216                etimer_pending
 .text.etimer_stop
                0x0000622c       0x4c contiki-avr-zigduino.a(etimer.o)
                0x0000622c                etimer_stop
 .text.process_thread_ctimer_process
                0x00006278       0xbc contiki-avr-zigduino.a(ctimer.o)
 .text.ctimer_init
                0x00006334       0x16 contiki-avr-zigduino.a(ctimer.o)
                0x00006334                ctimer_init
 .text.ctimer_set
                0x0000634a       0x60 contiki-avr-zigduino.a(ctimer.o)
                0x0000634a                ctimer_set
 .text.ctimer_reset
                0x000063aa       0x4e contiki-avr-zigduino.a(ctimer.o)
                0x000063aa                ctimer_reset
 .text.ctimer_stop
                0x000063f8       0x2c contiki-avr-zigduino.a(ctimer.o)
                0x000063f8                ctimer_stop
 .text.random_init
                0x00006424        0x6 contiki-avr-zigduino.a(random.o)
                0x00006424                random_init
 .text.random_rand
                0x0000642a        0x6 contiki-avr-zigduino.a(random.o)
                0x0000642a                random_rand
 .text.dn_ipmt_rxSerialRequest
                0x00006430      0x1ca contiki-avr-zigduino.a(dn_ipmt.o)
                0x00006430                dn_ipmt_rxSerialRequest
 .text.dn_ipmt_join_reply
                0x000065fa       0x2c contiki-avr-zigduino.a(dn_ipmt.o)
                0x000065fa                dn_ipmt_join_reply
 .text.dn_ipmt_requestService_reply
                0x00006626       0x2c contiki-avr-zigduino.a(dn_ipmt.o)
                0x00006626                dn_ipmt_requestService_reply
 .text.dn_ipmt_openSocket_reply
                0x00006652       0x3e contiki-avr-zigduino.a(dn_ipmt.o)
                0x00006652                dn_ipmt_openSocket_reply
 .text.dn_ipmt_closeSocket_reply
                0x00006690       0x2c contiki-avr-zigduino.a(dn_ipmt.o)
                0x00006690                dn_ipmt_closeSocket_reply
 .text.dn_ipmt_bindSocket_reply
                0x000066bc       0x2c contiki-avr-zigduino.a(dn_ipmt.o)
                0x000066bc                dn_ipmt_bindSocket_reply
 .text.dn_ipmt_sendTo_reply
                0x000066e8       0x2c contiki-avr-zigduino.a(dn_ipmt.o)
                0x000066e8                dn_ipmt_sendTo_reply
 .text.dn_ipmt_getParameter_ipv6Address_reply
                0x00006714       0x54 contiki-avr-zigduino.a(dn_ipmt.o)
                0x00006714                dn_ipmt_getParameter_ipv6Address_reply
 .text.dn_ipmt_getParameter_moteStatus_reply
                0x00006768       0x86 contiki-avr-zigduino.a(dn_ipmt.o)
                0x00006768                dn_ipmt_getParameter_moteStatus_reply
 .text.dn_ipmt_getServiceInfo_reply
                0x000067ee       0x6a contiki-avr-zigduino.a(dn_ipmt.o)
                0x000067ee                dn_ipmt_getServiceInfo_reply
 .text.dn_ipmt_init
                0x00006858       0x3a contiki-avr-zigduino.a(dn_ipmt.o)
                0x00006858                dn_ipmt_init
 .text.dn_ipmt_cancelTx
                0x00006892        0x6 contiki-avr-zigduino.a(dn_ipmt.o)
                0x00006892                dn_ipmt_cancelTx
 .text.dn_ipmt_getParameter_moteStatus
                0x00006898       0x4e contiki-avr-zigduino.a(dn_ipmt.o)
                0x00006898                dn_ipmt_getParameter_moteStatus
 .text.dn_ipmt_getParameter_ipv6Address
                0x000068e6       0x4e contiki-avr-zigduino.a(dn_ipmt.o)
                0x000068e6                dn_ipmt_getParameter_ipv6Address
 .text.dn_ipmt_join
                0x00006934       0x44 contiki-avr-zigduino.a(dn_ipmt.o)
                0x00006934                dn_ipmt_join
 .text.dn_ipmt_requestService
                0x00006978       0x76 contiki-avr-zigduino.a(dn_ipmt.o)
                0x00006978                dn_ipmt_requestService
 .text.dn_ipmt_getServiceInfo
                0x000069ee       0x56 contiki-avr-zigduino.a(dn_ipmt.o)
                0x000069ee                dn_ipmt_getServiceInfo
 .text.dn_ipmt_openSocket
                0x00006a44       0x48 contiki-avr-zigduino.a(dn_ipmt.o)
                0x00006a44                dn_ipmt_openSocket
 .text.dn_ipmt_closeSocket
                0x00006a8c       0x48 contiki-avr-zigduino.a(dn_ipmt.o)
                0x00006a8c                dn_ipmt_closeSocket
 .text.dn_ipmt_bindSocket
                0x00006ad4       0x4e contiki-avr-zigduino.a(dn_ipmt.o)
                0x00006ad4                dn_ipmt_bindSocket
 .text.dn_ipmt_sendTo
                0x00006b22       0xb0 contiki-avr-zigduino.a(dn_ipmt.o)
                0x00006b22                dn_ipmt_sendTo
 .text.dn_write_uint16_t
                0x00006bd2        0x8 contiki-avr-zigduino.a(dn_endianness.o)
                0x00006bd2                dn_write_uint16_t
 .text.dn_write_uint32_t
                0x00006bda        0xc contiki-avr-zigduino.a(dn_endianness.o)
                0x00006bda                dn_write_uint32_t
 .text.dn_read_uint16_t
                0x00006be6       0x1e contiki-avr-zigduino.a(dn_endianness.o)
                0x00006be6                dn_read_uint16_t
 .text.dn_read_uint32_t
                0x00006c04       0x6a contiki-avr-zigduino.a(dn_endianness.o)
                0x00006c04                dn_read_uint32_t
 .text.__vector_25
                0x00006c6e       0x5e contiki-avr-zigduino.a(rs232.o)
                0x00006c6e                __vector_25
 .text.__vector_36
                0x00006ccc       0x5e contiki-avr-zigduino.a(rs232.o)
                0x00006ccc                __vector_36
 .text.rs232_init
                0x00006d2a       0x40 contiki-avr-zigduino.a(rs232.o)
                0x00006d2a                rs232_init
 .text.rs232_send
                0x00006d6a       0x24 contiki-avr-zigduino.a(rs232.o)
                0x00006d6a                rs232_send
 .text.rs232_stdout_putchar
                0x00006d8e       0x26 contiki-avr-zigduino.a(rs232.o)
                0x00006d8e                rs232_stdout_putchar
 .text.rs232_set_input
                0x00006db4       0x1c contiki-avr-zigduino.a(rs232.o)
                0x00006db4                rs232_set_input
 .text.rs232_redirect_stdout
                0x00006dd0       0x12 contiki-avr-zigduino.a(rs232.o)
                0x00006dd0                rs232_redirect_stdout
 .text.cfs_open
                0x00006de2       0x5c contiki-avr-zigduino.a(cfs-eeprom.o)
                0x00006de2                cfs_open
 .text.cfs_close
                0x00006e3e        0xa contiki-avr-zigduino.a(cfs-eeprom.o)
                0x00006e3e                cfs_close
 .text.cfs_read
                0x00006e48       0x3a contiki-avr-zigduino.a(cfs-eeprom.o)
                0x00006e48                cfs_read
 .text.cfs_write
                0x00006e82       0x3a contiki-avr-zigduino.a(cfs-eeprom.o)
                0x00006e82                cfs_write
 .text.cfs_seek
                0x00006ebc       0x1a contiki-avr-zigduino.a(cfs-eeprom.o)
                0x00006ebc                cfs_seek
 .text.cfs_remove
                0x00006ed6        0x6 contiki-avr-zigduino.a(cfs-eeprom.o)
                0x00006ed6                cfs_remove
 .text.eeprom_write
                0x00006edc        0xe contiki-avr-zigduino.a(eeprom.o)
                0x00006edc                eeprom_write
 .text.eeprom_read
                0x00006eea        0xe contiki-avr-zigduino.a(eeprom.o)
                0x00006eea                eeprom_read
 .text.process_thread_sensors_process
                0x00006ef8      0x12a contiki-avr-zigduino.a(sensors.o)
 .text.rng_get_uint8
                0x00007022       0x2a contiki-avr-zigduino.a(contiki-main.o)
                0x00007022                rng_get_uint8
 .text.initialize
                0x0000704c      0x23c contiki-avr-zigduino.a(contiki-main.o)
                0x0000704c                initialize
 .text.startup.main
                0x00007288       0x20 contiki-avr-zigduino.a(contiki-main.o)
                0x00007288                main
 .text.params_get_channel
                0x000072a8       0xf6 contiki-avr-zigduino.a(params.o)
                0x000072a8                params_get_channel
 .text.params_get_eui64
                0x0000739e       0x14 contiki-avr-zigduino.a(params.o)
                0x0000739e                params_get_eui64
 .text.params_get_panid
                0x000073b2        0x8 contiki-avr-zigduino.a(params.o)
                0x000073b2                params_get_panid
 .text.params_get_panaddr
                0x000073ba        0x8 contiki-avr-zigduino.a(params.o)
                0x000073ba                params_get_panaddr
 .text.params_get_txpower
                0x000073c2        0x8 contiki-avr-zigduino.a(params.o)
                0x000073c2                params_get_txpower
 .text.clock_init
                0x000073ca       0x20 contiki-avr-zigduino.a(clock.o)
                0x000073ca                clock_init
 .text.clock_time
                0x000073ea       0x18 contiki-avr-zigduino.a(clock.o)
                0x000073ea                clock_time
 .text.clock_seconds
                0x00007402       0x34 contiki-avr-zigduino.a(clock.o)
                0x00007402                clock_seconds
 .text.clock_delay_msec
                0x00007436       0x12 contiki-avr-zigduino.a(clock.o)
                0x00007436                clock_delay_msec
 .text.__vector_21
                0x00007448       0xa2 contiki-avr-zigduino.a(clock.o)
                0x00007448                __vector_21
 .text.watchdog_init
                0x000074ea       0x18 contiki-avr-zigduino.a(watchdog.o)
                0x000074ea                watchdog_init
 .text.watchdog_start
                0x00007502       0x18 contiki-avr-zigduino.a(watchdog.o)
                0x00007502                watchdog_start
 .text.watchdog_periodic
                0x0000751a        0x4 contiki-avr-zigduino.a(watchdog.o)
                0x0000751a                watchdog_periodic
 .text.write_ldi
                0x0000751e       0x20 contiki-avr-zigduino.a(elfloader-avr.o)
 .text.elfloader_in_memory
                0x0000753e       0x1c contiki-avr-zigduino.a(elfloader-avr.o)
                0x0000753e                elfloader_in_memory
 .text.elfloader_arch_allocate_ram
                0x0000755a       0x22 contiki-avr-zigduino.a(elfloader-avr.o)
                0x0000755a                elfloader_arch_allocate_ram
 .text.elfloader_arch_allocate_rom
                0x0000757c       0x2e contiki-avr-zigduino.a(elfloader-avr.o)
                0x0000757c                elfloader_arch_allocate_rom
 .text.elfloader_arch_relocate
                0x000075aa      0x16e contiki-avr-zigduino.a(elfloader-avr.o)
                0x000075aa                elfloader_arch_relocate
 .text.symtab_lookup
                0x00007718       0x66 contiki-avr-zigduino.a(symtab-avr.o)
                0x00007718                symtab_lookup
 .text.rf230_pending_packet
                0x0000777e        0x8 contiki-avr-zigduino.a(rf230bb.o)
 .text.radio_reset_state_machine
                0x00007786       0x30 contiki-avr-zigduino.a(rf230bb.o)
 .text.set_txpower
                0x000077b6       0x1c contiki-avr-zigduino.a(rf230bb.o)
 .text.rf230_prepare
                0x000077d2       0x20 contiki-avr-zigduino.a(rf230bb.o)
 .text.rf230_isidle
                0x000077f2       0x2a contiki-avr-zigduino.a(rf230bb.o)
 .text.rf230_waitidle
                0x0000781c       0x10 contiki-avr-zigduino.a(rf230bb.o)
 .text.rf230_receiving_packet
                0x0000782c       0x28 contiki-avr-zigduino.a(rf230bb.o)
 .text.radio_off
                0x00007854       0x24 contiki-avr-zigduino.a(rf230bb.o)
 .text.rf230_off
                0x00007878       0x12 contiki-avr-zigduino.a(rf230bb.o)
 .text.radio_get_trx_state
                0x0000788a        0xa contiki-avr-zigduino.a(rf230bb.o)
                0x0000788a                radio_get_trx_state
 .text.radio_set_trx_state
                0x00007894       0xb0 contiki-avr-zigduino.a(rf230bb.o)
 .text.radio_on
                0x00007944       0x3e contiki-avr-zigduino.a(rf230bb.o)
 .text.rf230_on
                0x00007982       0x10 contiki-avr-zigduino.a(rf230bb.o)
 .text.rf230_cca
                0x00007992       0x86 contiki-avr-zigduino.a(rf230bb.o)
 .text.rf230_warm_reset
                0x00007a18       0x38 contiki-avr-zigduino.a(rf230bb.o)
                0x00007a18                rf230_warm_reset
 .text.rf230_init
                0x00007a50       0x66 contiki-avr-zigduino.a(rf230bb.o)
                0x00007a50                rf230_init
 .text.rf230_get_channel
                0x00007ab6        0x6 contiki-avr-zigduino.a(rf230bb.o)
                0x00007ab6                rf230_get_channel
 .text.rf230_set_channel
                0x00007abc       0x2a contiki-avr-zigduino.a(rf230bb.o)
                0x00007abc                rf230_set_channel
 .text.rf230_set_pan_addr
                0x00007ae6       0x48 contiki-avr-zigduino.a(rf230bb.o)
                0x00007ae6                rf230_set_pan_addr
 .text.rf230_interrupt
                0x00007b2e       0x14 contiki-avr-zigduino.a(rf230bb.o)
                0x00007b2e                rf230_interrupt
 .text.rf230_read
                0x00007b42       0xae contiki-avr-zigduino.a(rf230bb.o)
 .text.process_thread_rf230_process
                0x00007bf0       0x66 contiki-avr-zigduino.a(rf230bb.o)
 .text.rf230_set_txpower
                0x00007c56        0x4 contiki-avr-zigduino.a(rf230bb.o)
                0x00007c56                rf230_set_txpower
 .text.rf230_get_txpower
                0x00007c5a       0x16 contiki-avr-zigduino.a(rf230bb.o)
                0x00007c5a                rf230_get_txpower
 .text.rf230_transmit
                0x00007c70       0xea contiki-avr-zigduino.a(rf230bb.o)
 .text.rf230_send
                0x00007d5a       0x16 contiki-avr-zigduino.a(rf230bb.o)
 .text.hal_init
                0x00007d70        0x2 contiki-avr-zigduino.a(halbb.o)
                0x00007d70                hal_init
 .text.hal_subregister_read
                0x00007d72       0x14 contiki-avr-zigduino.a(halbb.o)
                0x00007d72                hal_subregister_read
 .text.hal_subregister_write
                0x00007d86       0x36 contiki-avr-zigduino.a(halbb.o)
                0x00007d86                hal_subregister_write
 .text.hal_frame_read
                0x00007dbc       0x54 contiki-avr-zigduino.a(halbb.o)
                0x00007dbc                hal_frame_read
 .text.hal_frame_write
                0x00007e10       0x22 contiki-avr-zigduino.a(halbb.o)
                0x00007e10                hal_frame_write
 .text.__vector_60
                0x00007e32       0x6c contiki-avr-zigduino.a(halbb.o)
                0x00007e32                __vector_60
 .text.__vector_59
                0x00007e9e       0x14 contiki-avr-zigduino.a(halbb.o)
                0x00007e9e                __vector_59
 .text.__vector_57
                0x00007eb2       0x14 contiki-avr-zigduino.a(halbb.o)
                0x00007eb2                __vector_57
 .text.__vector_58
                0x00007ec6       0x14 contiki-avr-zigduino.a(halbb.o)
                0x00007ec6                __vector_58
 .text.__vector_64
                0x00007eda       0x18 contiki-avr-zigduino.a(halbb.o)
                0x00007eda                __vector_64
 .text.__vector_63
                0x00007ef2       0x18 contiki-avr-zigduino.a(halbb.o)
                0x00007ef2                __vector_63
 .text.__vector_62
                0x00007f0a       0x14 contiki-avr-zigduino.a(halbb.o)
                0x00007f0a                __vector_62
 .text.__vector_61
                0x00007f1e       0x18 contiki-avr-zigduino.a(halbb.o)
                0x00007f1e                __vector_61
 .text.rimeaddr_copy
                0x00007f36       0x10 contiki-avr-zigduino.a(rimeaddr.o)
                0x00007f36                rimeaddr_copy
 .text.rimeaddr_cmp
                0x00007f46       0x18 contiki-avr-zigduino.a(rimeaddr.o)
                0x00007f46                rimeaddr_cmp
 .text.rimeaddr_set_node_addr
                0x00007f5e        0x8 contiki-avr-zigduino.a(rimeaddr.o)
                0x00007f5e                rimeaddr_set_node_addr
 .text.send_packet
                0x00007f66        0xc contiki-avr-zigduino.a(nullmac.o)
 .text.packet_input
                0x00007f72        0xc contiki-avr-zigduino.a(nullmac.o)
 .text.on       0x00007f7e        0xc contiki-avr-zigduino.a(nullmac.o)
 .text.off      0x00007f8a        0xc contiki-avr-zigduino.a(nullmac.o)
 .text.channel_check_interval
                0x00007f96        0x6 contiki-avr-zigduino.a(nullmac.o)
 .text.init     0x00007f9c        0x2 contiki-avr-zigduino.a(nullmac.o)
 .text.on       0x00007f9e        0xc contiki-avr-zigduino.a(sicslowmac.o)
 .text.channel_check_interval
                0x00007faa        0x6 contiki-avr-zigduino.a(sicslowmac.o)
 .text.send_packet
                0x00007fb0       0xec contiki-avr-zigduino.a(sicslowmac.o)
 .text.send_list
                0x0000809c       0x30 contiki-avr-zigduino.a(sicslowmac.o)
                0x0000809c                send_list
 .text.input_packet
                0x000080cc       0xae contiki-avr-zigduino.a(sicslowmac.o)
 .text.init     0x0000817a       0x14 contiki-avr-zigduino.a(sicslowmac.o)
 .text.off      0x0000818e       0x1a contiki-avr-zigduino.a(sicslowmac.o)
 .text.autostart_start
                0x000081a8       0x1e contiki-avr-zigduino.a(autostart.o)
                0x000081a8                autostart_start
 .text.process_thread_serial_line_process
                0x000081c6       0xca contiki-avr-zigduino.a(serial-line.o)
 .text.serial_line_input_byte
                0x00008290       0x48 contiki-avr-zigduino.a(serial-line.o)
                0x00008290                serial_line_input_byte
 .text.timer_set
                0x000082d8       0x16 contiki-avr-zigduino.a(timer.o)
                0x000082d8                timer_set
 .text.timer_reset
                0x000082ee       0x14 contiki-avr-zigduino.a(timer.o)
                0x000082ee                timer_reset
 .text.timer_restart
                0x00008302       0x12 contiki-avr-zigduino.a(timer.o)
                0x00008302                timer_restart
 .text.timer_expired
                0x00008314       0x2e contiki-avr-zigduino.a(timer.o)
                0x00008314                timer_expired
 .text.rtimer_init
                0x00008342        0x6 contiki-avr-zigduino.a(rtimer.o)
                0x00008342                rtimer_init
 .text.rtimer_run_next
                0x00008348       0x3e contiki-avr-zigduino.a(rtimer.o)
                0x00008348                rtimer_run_next
 .text.ringbuf_put
                0x00008386       0x3e contiki-avr-zigduino.a(ringbuf.o)
                0x00008386                ringbuf_put
 .text.ringbuf_get
                0x000083c4       0x3a contiki-avr-zigduino.a(ringbuf.o)
                0x000083c4                ringbuf_get
 .text.packetbuf_copyto_hdr
                0x000083fe       0x24 contiki-avr-zigduino.a(packetbuf.o)
                0x000083fe                packetbuf_copyto_hdr
 .text.packetbuf_copyto
                0x00008422       0x6e contiki-avr-zigduino.a(packetbuf.o)
                0x00008422                packetbuf_copyto
 .text.packetbuf_hdrreduce
                0x00008490       0x3a contiki-avr-zigduino.a(packetbuf.o)
                0x00008490                packetbuf_hdrreduce
 .text.packetbuf_set_datalen
                0x000084ca        0xa contiki-avr-zigduino.a(packetbuf.o)
                0x000084ca                packetbuf_set_datalen
 .text.packetbuf_dataptr
                0x000084d4        0xe contiki-avr-zigduino.a(packetbuf.o)
                0x000084d4                packetbuf_dataptr
 .text.packetbuf_hdrptr
                0x000084e2        0xc contiki-avr-zigduino.a(packetbuf.o)
                0x000084e2                packetbuf_hdrptr
 .text.packetbuf_is_reference
                0x000084ee       0x18 contiki-avr-zigduino.a(packetbuf.o)
                0x000084ee                packetbuf_is_reference
 .text.packetbuf_reference_ptr
                0x00008506        0xa contiki-avr-zigduino.a(packetbuf.o)
                0x00008506                packetbuf_reference_ptr
 .text.packetbuf_datalen
                0x00008510        0xa contiki-avr-zigduino.a(packetbuf.o)
                0x00008510                packetbuf_datalen
 .text.packetbuf_totlen
                0x0000851a       0x16 contiki-avr-zigduino.a(packetbuf.o)
                0x0000851a                packetbuf_totlen
 .text.packetbuf_hdralloc
                0x00008530       0x3a contiki-avr-zigduino.a(packetbuf.o)
                0x00008530                packetbuf_hdralloc
 .text.packetbuf_attr_clear
                0x0000856a       0x30 contiki-avr-zigduino.a(packetbuf.o)
                0x0000856a                packetbuf_attr_clear
 .text.packetbuf_clear
                0x0000859a       0x24 contiki-avr-zigduino.a(packetbuf.o)
                0x0000859a                packetbuf_clear
 .text.packetbuf_copyfrom
                0x000085be       0x4c contiki-avr-zigduino.a(packetbuf.o)
                0x000085be                packetbuf_copyfrom
 .text.packetbuf_attr_copyto
                0x0000860a       0x22 contiki-avr-zigduino.a(packetbuf.o)
                0x0000860a                packetbuf_attr_copyto
 .text.packetbuf_attr_copyfrom
                0x0000862c       0x22 contiki-avr-zigduino.a(packetbuf.o)
                0x0000862c                packetbuf_attr_copyfrom
 .text.packetbuf_set_attr
                0x0000864e       0x16 contiki-avr-zigduino.a(packetbuf.o)
                0x0000864e                packetbuf_set_attr
 .text.packetbuf_attr
                0x00008664       0x12 contiki-avr-zigduino.a(packetbuf.o)
                0x00008664                packetbuf_attr
 .text.packetbuf_set_addr
                0x00008676       0x14 contiki-avr-zigduino.a(packetbuf.o)
                0x00008676                packetbuf_set_addr
 .text.packetbuf_addr
                0x0000868a        0xe contiki-avr-zigduino.a(packetbuf.o)
                0x0000868a                packetbuf_addr
 .text.queuebuf_init
                0x00008698       0x18 contiki-avr-zigduino.a(queuebuf.o)
                0x00008698                queuebuf_init
 .text.queuebuf_new_from_packetbuf
                0x000086b0       0x7e contiki-avr-zigduino.a(queuebuf.o)
                0x000086b0                queuebuf_new_from_packetbuf
 .text.queuebuf_free
                0x0000872e       0x46 contiki-avr-zigduino.a(queuebuf.o)
                0x0000872e                queuebuf_free
 .text.queuebuf_to_packetbuf
                0x00008774       0x74 contiki-avr-zigduino.a(queuebuf.o)
                0x00008774                queuebuf_to_packetbuf
 .text.sicslowpan_init
                0x000087e8       0x1e contiki-avr-zigduino.a(sicslowpan.o)
                0x000087e8                sicslowpan_init
 .text.set_packet_attrs
                0x00008806       0x4e contiki-avr-zigduino.a(sicslowpan.o)
 .text.compress_addr_64
                0x00008854       0xcc contiki-avr-zigduino.a(sicslowpan.o)
 .text.addr_context_lookup_by_prefix
                0x00008920       0x26 contiki-avr-zigduino.a(sicslowpan.o)
 .text.send_packet
                0x00008946       0x1c contiki-avr-zigduino.a(sicslowpan.o)
 .text.output   0x00008962      0x7d0 contiki-avr-zigduino.a(sicslowpan.o)
 .text.packet_sent
                0x00009132       0x32 contiki-avr-zigduino.a(sicslowpan.o)
 .text.uncompress_addr
                0x00009164       0xba contiki-avr-zigduino.a(sicslowpan.o)
 .text.input    0x0000921e      0x71a contiki-avr-zigduino.a(sicslowpan.o)
 .text.start_periodic_tcp_timer
                0x00009938       0x16 contiki-avr-zigduino.a(tcpip.o)
 .text.tcpip_output
                0x0000994e       0x14 contiki-avr-zigduino.a(tcpip.o)
                0x0000994e                tcpip_output
 .text.tcpip_set_outputfunc
                0x00009962        0xa contiki-avr-zigduino.a(tcpip.o)
                0x00009962                tcpip_set_outputfunc
 .text.tcpip_icmp6_call
                0x0000996c       0x30 contiki-avr-zigduino.a(tcpip.o)
                0x0000996c                tcpip_icmp6_call
 .text.tcpip_input
                0x0000999c       0x1c contiki-avr-zigduino.a(tcpip.o)
                0x0000999c                tcpip_input
 .text.tcpip_ipv6_output
                0x000099b8      0x228 contiki-avr-zigduino.a(tcpip.o)
                0x000099b8                tcpip_ipv6_output
 .text.process_thread_tcpip_process
                0x00009be0      0x234 contiki-avr-zigduino.a(tcpip.o)
 .text.tcpip_uipcall
                0x00009e14       0x84 contiki-avr-zigduino.a(tcpip.o)
                0x00009e14                tcpip_uipcall
 .text.call_route_callback
                0x00009e98       0x58 contiki-avr-zigduino.a(uip-ds6-route.o)
 .text.uip_ds6_route_init
                0x00009ef0       0x2c contiki-avr-zigduino.a(uip-ds6-route.o)
                0x00009ef0                uip_ds6_route_init
 .text.uip_ds6_route_nexthop
                0x00009f1c       0x1a contiki-avr-zigduino.a(uip-ds6-route.o)
                0x00009f1c                uip_ds6_route_nexthop
 .text.uip_ds6_route_head
                0x00009f36       0x2e contiki-avr-zigduino.a(uip-ds6-route.o)
                0x00009f36                uip_ds6_route_head
 .text.uip_ds6_route_next
                0x00009f64       0x38 contiki-avr-zigduino.a(uip-ds6-route.o)
                0x00009f64                uip_ds6_route_next
 .text.uip_ds6_route_lookup
                0x00009f9c       0x58 contiki-avr-zigduino.a(uip-ds6-route.o)
                0x00009f9c                uip_ds6_route_lookup
 .text.uip_ds6_route_rm
                0x00009ff4       0x70 contiki-avr-zigduino.a(uip-ds6-route.o)
                0x00009ff4                uip_ds6_route_rm
 .text.rm_routelist
                0x0000a064       0x32 contiki-avr-zigduino.a(uip-ds6-route.o)
 .text.rm_routelist_callback
                0x0000a096        0x4 contiki-avr-zigduino.a(uip-ds6-route.o)
 .text.uip_ds6_defrt_rm
                0x0000a09a       0x54 contiki-avr-zigduino.a(uip-ds6-route.o)
                0x0000a09a                uip_ds6_defrt_rm
 .text.uip_ds6_defrt_lookup
                0x0000a0ee       0x44 contiki-avr-zigduino.a(uip-ds6-route.o)
                0x0000a0ee                uip_ds6_defrt_lookup
 .text.uip_ds6_defrt_add
                0x0000a132       0x7c contiki-avr-zigduino.a(uip-ds6-route.o)
                0x0000a132                uip_ds6_defrt_add
 .text.uip_ds6_defrt_choose
                0x0000a1ae       0x46 contiki-avr-zigduino.a(uip-ds6-route.o)
                0x0000a1ae                uip_ds6_defrt_choose
 .text.uip_ds6_defrt_periodic
                0x0000a1f4       0x38 contiki-avr-zigduino.a(uip-ds6-route.o)
                0x0000a1f4                uip_ds6_defrt_periodic
 .text.uip_ds6_nbr_rm
                0x0000a22c       0x24 contiki-avr-zigduino.a(uip-ds6-nbr.o)
                0x0000a22c                uip_ds6_nbr_rm
 .text.uip_ds6_neighbors_init
                0x0000a250       0x10 contiki-avr-zigduino.a(uip-ds6-nbr.o)
                0x0000a250                uip_ds6_neighbors_init
 .text.uip_ds6_nbr_add
                0x0000a260       0x6e contiki-avr-zigduino.a(uip-ds6-nbr.o)
                0x0000a260                uip_ds6_nbr_add
 .text.uip_ds6_nbr_get_ll
                0x0000a2ce        0xe contiki-avr-zigduino.a(uip-ds6-nbr.o)
                0x0000a2ce                uip_ds6_nbr_get_ll
 .text.uip_ds6_nbr_lookup
                0x0000a2dc       0x56 contiki-avr-zigduino.a(uip-ds6-nbr.o)
                0x0000a2dc                uip_ds6_nbr_lookup
 .text.uip_ds6_nbr_ll_lookup
                0x0000a332        0xe contiki-avr-zigduino.a(uip-ds6-nbr.o)
                0x0000a332                uip_ds6_nbr_ll_lookup
 .text.uip_ds6_nbr_ipaddr_from_lladdr
                0x0000a340        0x4 contiki-avr-zigduino.a(uip-ds6-nbr.o)
                0x0000a340                uip_ds6_nbr_ipaddr_from_lladdr
 .text.uip_ds6_link_neighbor_callback
                0x0000a344        0xe contiki-avr-zigduino.a(uip-ds6-nbr.o)
                0x0000a344                uip_ds6_link_neighbor_callback
 .text.uip_ds6_neighbor_periodic
                0x0000a352      0x132 contiki-avr-zigduino.a(uip-ds6-nbr.o)
                0x0000a352                uip_ds6_neighbor_periodic
 .text.uip_ds6_list_loop
                0x0000a484       0x7a contiki-avr-zigduino.a(uip-ds6.o)
                0x0000a484                uip_ds6_list_loop
 .text.uip_ds6_prefix_add
                0x0000a4fe       0xa0 contiki-avr-zigduino.a(uip-ds6.o)
                0x0000a4fe                uip_ds6_prefix_add
 .text.uip_ds6_prefix_rm
                0x0000a59e        0xa contiki-avr-zigduino.a(uip-ds6.o)
                0x0000a59e                uip_ds6_prefix_rm
 .text.uip_ds6_prefix_lookup
                0x0000a5a8       0x38 contiki-avr-zigduino.a(uip-ds6.o)
                0x0000a5a8                uip_ds6_prefix_lookup
 .text.uip_ds6_is_addr_onlink
                0x0000a5e0       0x60 contiki-avr-zigduino.a(uip-ds6.o)
                0x0000a5e0                uip_ds6_is_addr_onlink
 .text.uip_ds6_addr_lookup
                0x0000a640       0x38 contiki-avr-zigduino.a(uip-ds6.o)
                0x0000a640                uip_ds6_addr_lookup
 .text.uip_ds6_get_link_local
                0x0000a678       0x5a contiki-avr-zigduino.a(uip-ds6.o)
                0x0000a678                uip_ds6_get_link_local
 .text.uip_ds6_maddr_add
                0x0000a6d2       0x62 contiki-avr-zigduino.a(uip-ds6.o)
                0x0000a6d2                uip_ds6_maddr_add
 .text.uip_ds6_addr_add
                0x0000a734      0x100 contiki-avr-zigduino.a(uip-ds6.o)
                0x0000a734                uip_ds6_addr_add
 .text.uip_ds6_maddr_rm
                0x0000a834        0xa contiki-avr-zigduino.a(uip-ds6.o)
                0x0000a834                uip_ds6_maddr_rm
 .text.uip_ds6_maddr_lookup
                0x0000a83e       0x38 contiki-avr-zigduino.a(uip-ds6.o)
                0x0000a83e                uip_ds6_maddr_lookup
 .text.uip_ds6_addr_rm
                0x0000a876       0x72 contiki-avr-zigduino.a(uip-ds6.o)
                0x0000a876                uip_ds6_addr_rm
 .text.uip_ds6_periodic
                0x0000a8e8       0xa0 contiki-avr-zigduino.a(uip-ds6.o)
                0x0000a8e8                uip_ds6_periodic
 .text.uip_ds6_set_addr_iid
                0x0000a988       0x1c contiki-avr-zigduino.a(uip-ds6.o)
                0x0000a988                uip_ds6_set_addr_iid
 .text.get_match_length
                0x0000a9a4       0x2a contiki-avr-zigduino.a(uip-ds6.o)
                0x0000a9a4                get_match_length
 .text.uip_ds6_select_src
                0x0000a9ce       0xc8 contiki-avr-zigduino.a(uip-ds6.o)
                0x0000a9ce                uip_ds6_select_src
 .text.uip_ds6_send_rs
                0x0000aa96       0x2e contiki-avr-zigduino.a(uip-ds6.o)
                0x0000aa96                uip_ds6_send_rs
 .text.uip_ds6_compute_reachable_time
                0x0000aac4       0x58 contiki-avr-zigduino.a(uip-ds6.o)
                0x0000aac4                uip_ds6_compute_reachable_time
 .text.uip_ds6_init
                0x0000ab1c      0x150 contiki-avr-zigduino.a(uip-ds6.o)
                0x0000ab1c                uip_ds6_init
 .text.create_llao
                0x0000ac6c       0x2c contiki-avr-zigduino.a(uip-nd6.o)
 .text.uip_nd6_ns_input
                0x0000ac98      0x32c contiki-avr-zigduino.a(uip-nd6.o)
                0x0000ac98                uip_nd6_ns_input
 .text.uip_nd6_ns_output
                0x0000afc4      0x1d8 contiki-avr-zigduino.a(uip-nd6.o)
                0x0000afc4                uip_nd6_ns_output
 .text.uip_nd6_na_input
                0x0000b19c      0x264 contiki-avr-zigduino.a(uip-nd6.o)
                0x0000b19c                uip_nd6_na_input
 .text.uip_nd6_rs_output
                0x0000b400      0x136 contiki-avr-zigduino.a(uip-nd6.o)
                0x0000b400                uip_nd6_rs_output
 .text.uip_nd6_ra_input
                0x0000b536      0x53e contiki-avr-zigduino.a(uip-nd6.o)
                0x0000b536                uip_nd6_ra_input
 .text.packet_timedout
                0x0000ba74       0x1c contiki-avr-zigduino.a(uip-packetqueue)
 .text.uip_packetqueue_new
                0x0000ba90        0x8 contiki-avr-zigduino.a(uip-packetqueue)
                0x0000ba90                uip_packetqueue_new
 .text.uip_packetqueue_alloc
                0x0000ba98       0x54 contiki-avr-zigduino.a(uip-packetqueue)
                0x0000ba98                uip_packetqueue_alloc
 .text.uip_packetqueue_free
                0x0000baec       0x2c contiki-avr-zigduino.a(uip-packetqueue)
                0x0000baec                uip_packetqueue_free
 .text.uip_packetqueue_buf
                0x0000bb18       0x14 contiki-avr-zigduino.a(uip-packetqueue)
                0x0000bb18                uip_packetqueue_buf
 .text.uip_packetqueue_buflen
                0x0000bb2c       0x1c contiki-avr-zigduino.a(uip-packetqueue)
                0x0000bb2c                uip_packetqueue_buflen
 .text.uip_packetqueue_set_buflen
                0x0000bb48       0x16 contiki-avr-zigduino.a(uip-packetqueue)
                0x0000bb48                uip_packetqueue_set_buflen
 .text.uip_split_output
                0x0000bb5e       0xf0 contiki-avr-zigduino.a(uip-split.o)
                0x0000bb5e                uip_split_output
 .text.chksum   0x0000bc4e       0x4a contiki-avr-zigduino.a(uip6.o)
 .text.upper_layer_chksum
                0x0000bc98       0x66 contiki-avr-zigduino.a(uip6.o)
 .text.ext_hdr_options_process
                0x0000bcfe       0xaa contiki-avr-zigduino.a(uip6.o)
 .text.uip_add32
                0x0000bda8       0x6e contiki-avr-zigduino.a(uip6.o)
                0x0000bda8                uip_add32
 .text.unlikely.uip_add_rcv_nxt
                0x0000be16       0x32 contiki-avr-zigduino.a(uip6.o)
 .text.uip_icmp6chksum
                0x0000be48        0x4 contiki-avr-zigduino.a(uip6.o)
                0x0000be48                uip_icmp6chksum
 .text.uip_tcpchksum
                0x0000be4c        0x4 contiki-avr-zigduino.a(uip6.o)
                0x0000be4c                uip_tcpchksum
 .text.uip_udpchksum
                0x0000be50        0x4 contiki-avr-zigduino.a(uip6.o)
                0x0000be50                uip_udpchksum
 .text.uip_init
                0x0000be54       0x5c contiki-avr-zigduino.a(uip6.o)
                0x0000be54                uip_init
 .text.remove_ext_hdr
                0x0000beb0       0x6c contiki-avr-zigduino.a(uip6.o)
                0x0000beb0                remove_ext_hdr
 .text.uip_unlisten
                0x0000bf1c       0x34 contiki-avr-zigduino.a(uip6.o)
                0x0000bf1c                uip_unlisten
 .text.uip_process
                0x0000bf50      0xeea contiki-avr-zigduino.a(uip6.o)
                0x0000bf50                uip_process
 .text.uip_htons
                0x0000ce3a        0x8 contiki-avr-zigduino.a(uip6.o)
                0x0000ce3a                uip_htons
 .text.uip_htonl
                0x0000ce42        0x6 contiki-avr-zigduino.a(uip6.o)
                0x0000ce42                uip_htonl
 .text.dn_serial_mt_init
                0x0000ce48       0x2c contiki-avr-zigduino.a(dn_serial_mt.o)
                0x0000ce48                dn_serial_mt_init
 .text.dn_serial_mt_sendRequest
                0x0000ce74       0x96 contiki-avr-zigduino.a(dn_serial_mt.o)
                0x0000ce74                dn_serial_mt_sendRequest
 .text.dn_serial_sendReply
                0x0000cf0a       0x56 contiki-avr-zigduino.a(dn_serial_mt.o)
                0x0000cf0a                dn_serial_sendReply
 .text.dn_serial_mt_dispatch_response
                0x0000cf60       0x30 contiki-avr-zigduino.a(dn_serial_mt.o)
                0x0000cf60                dn_serial_mt_dispatch_response
 .text.dn_serial_mt_rxHdlcFrame
                0x0000cf90       0x7c contiki-avr-zigduino.a(dn_serial_mt.o)
                0x0000cf90                dn_serial_mt_rxHdlcFrame
 .text.dn_hdlc_init
                0x0000d00c       0x22 contiki-avr-zigduino.a(dn_hdlc.o)
                0x0000d00c                dn_hdlc_init
 .text.dn_hdlc_outputOpen
                0x0000d02e       0x12 contiki-avr-zigduino.a(dn_hdlc.o)
                0x0000d02e                dn_hdlc_outputOpen
 .text.dn_hdlc_inputOpen
                0x0000d040       0x12 contiki-avr-zigduino.a(dn_hdlc.o)
                0x0000d040                dn_hdlc_inputOpen
 .text.dn_hdlc_inputClose
                0x0000d052       0x24 contiki-avr-zigduino.a(dn_hdlc.o)
                0x0000d052                dn_hdlc_inputClose
 .text.dn_hdlc_crcIteration
                0x0000d076       0x1c contiki-avr-zigduino.a(dn_hdlc.o)
                0x0000d076                dn_hdlc_crcIteration
 .text.dn_hdlc_outputWrite
                0x0000d092       0x34 contiki-avr-zigduino.a(dn_hdlc.o)
                0x0000d092                dn_hdlc_outputWrite
 .text.dn_hdlc_outputClose
                0x0000d0c6       0x24 contiki-avr-zigduino.a(dn_hdlc.o)
                0x0000d0c6                dn_hdlc_outputClose
 .text.dn_hdlc_inputWrite
                0x0000d0ea       0x46 contiki-avr-zigduino.a(dn_hdlc.o)
                0x0000d0ea                dn_hdlc_inputWrite
 .text.dn_hdlc_rxByte
                0x0000d130       0x64 contiki-avr-zigduino.a(dn_hdlc.o)
                0x0000d130                dn_hdlc_rxByte
 .text.__vector_32
                0x0000d194       0x5a contiki-avr-zigduino.a(rtimer-arch.o)
                0x0000d194                __vector_32
 .text.rtimer_arch_init
                0x0000d1ee       0x34 contiki-avr-zigduino.a(rtimer-arch.o)
                0x0000d1ee                rtimer_arch_init
 .text.rtimer_arch_schedule
                0x0000d222       0x20 contiki-avr-zigduino.a(rtimer-arch.o)
                0x0000d222                rtimer_arch_schedule
 .text.__vector_13
                0x0000d242       0x14 contiki-avr-zigduino.a(rtimer-arch.o)
                0x0000d242                __vector_13
 .text.field_len
                0x0000d256       0x8e contiki-avr-zigduino.a(frame802154.o)
 .text.frame802154_hdrlen
                0x0000d2e4       0x3a contiki-avr-zigduino.a(frame802154.o)
                0x0000d2e4                frame802154_hdrlen
 .text.frame802154_create
                0x0000d31e      0x1b0 contiki-avr-zigduino.a(frame802154.o)
                0x0000d31e                frame802154_create
 .text.frame802154_parse
                0x0000d4ce      0x188 contiki-avr-zigduino.a(frame802154.o)
                0x0000d4ce                frame802154_parse
 .text.parse    0x0000d656       0xbe contiki-avr-zigduino.a(framer-802154.o)
 .text.create   0x0000d714      0x116 contiki-avr-zigduino.a(framer-802154.o)
 .text.stimer_set
                0x0000d82a       0x20 contiki-avr-zigduino.a(stimer.o)
                0x0000d82a                stimer_set
 .text.stimer_expired
                0x0000d84a       0x50 contiki-avr-zigduino.a(stimer.o)
                0x0000d84a                stimer_expired
 .text.stimer_remaining
                0x0000d89a       0x40 contiki-avr-zigduino.a(stimer.o)
                0x0000d89a                stimer_remaining
 .text.index_from_key
                0x0000d8da       0x32 contiki-avr-zigduino.a(nbr-table.o)
 .text.nbr_set_bit
                0x0000d90c       0x66 contiki-avr-zigduino.a(nbr-table.o)
 .text.index_from_lladdr
                0x0000d972       0x52 contiki-avr-zigduino.a(nbr-table.o)
 .text.key_from_item
                0x0000d9c4       0x48 contiki-avr-zigduino.a(nbr-table.o)
 .text.item_from_key
                0x0000da0c       0x3c contiki-avr-zigduino.a(nbr-table.o)
 .text.nbr_get_bit.constprop.0
                0x0000da48       0x48 contiki-avr-zigduino.a(nbr-table.o)
 .text.nbr_table_register
                0x0000da90       0x40 contiki-avr-zigduino.a(nbr-table.o)
                0x0000da90                nbr_table_register
 .text.nbr_table_next
                0x0000dad0       0x38 contiki-avr-zigduino.a(nbr-table.o)
                0x0000dad0                nbr_table_next
 .text.nbr_table_head
                0x0000db08       0x38 contiki-avr-zigduino.a(nbr-table.o)
                0x0000db08                nbr_table_head
 .text.nbr_table_add_lladdr
                0x0000db40      0x188 contiki-avr-zigduino.a(nbr-table.o)
                0x0000db40                nbr_table_add_lladdr
 .text.nbr_table_get_from_lladdr
                0x0000dcc8       0x5a contiki-avr-zigduino.a(nbr-table.o)
                0x0000dcc8                nbr_table_get_from_lladdr
 .text.nbr_table_remove
                0x0000dd22       0x38 contiki-avr-zigduino.a(nbr-table.o)
                0x0000dd22                nbr_table_remove
 .text.nbr_table_get_lladdr
                0x0000dd5a       0x10 contiki-avr-zigduino.a(nbr-table.o)
                0x0000dd5a                nbr_table_get_lladdr
 .text.uip_icmp6_echo_request_input
                0x0000dd6a       0xd6 contiki-avr-zigduino.a(uip-icmp6.o)
                0x0000dd6a                uip_icmp6_echo_request_input
 .text.uip_icmp6_error_output
                0x0000de40      0x1b8 contiki-avr-zigduino.a(uip-icmp6.o)
                0x0000de40                uip_icmp6_error_output
 .text.avr-libc
                0x0000dff8      0x24e /usr/local/CrossPack-AVR-20131216/lib/gcc/avr/4.8.1/../../../../avr/lib/avr51/libc.a(malloc.o)
                0x0000dff8                malloc
                0x0000e128                free
 .text.avr-libc
                0x0000e246       0xae /usr/local/CrossPack-AVR-20131216/lib/gcc/avr/4.8.1/../../../../avr/lib/avr51/libc.a(rand.o)
                0x0000e2d6                rand_r
                0x0000e2d8                rand
                0x0000e2de                srand
 .text.avr-libc
                0x0000e2f4       0x12 /usr/local/CrossPack-AVR-20131216/lib/gcc/avr/4.8.1/../../../../avr/lib/avr51/libc.a(memcpy_P.o)
                0x0000e2f4                memcpy_P
 .text.avr-libc
                0x0000e306       0x12 /usr/local/CrossPack-AVR-20131216/lib/gcc/avr/4.8.1/../../../../avr/lib/avr51/libc.a(strcmp_P.o)
                0x0000e306                strcmp_P
 .text.avr-libc
                0x0000e318       0x1a /usr/local/CrossPack-AVR-20131216/lib/gcc/avr/4.8.1/../../../../avr/lib/avr51/libc.a(memcmp.o)
                0x0000e318                memcmp
 .text.avr-libc
                0x0000e332       0x12 /usr/local/CrossPack-AVR-20131216/lib/gcc/avr/4.8.1/../../../../avr/lib/avr51/libc.a(memcpy.o)
                0x0000e332                memcpy
 .text.avr-libc
                0x0000e344       0x22 /usr/local/CrossPack-AVR-20131216/lib/gcc/avr/4.8.1/../../../../avr/lib/avr51/libc.a(memmove.o)
                0x0000e344                memmove
 .text.avr-libc
                0x0000e366        0xe /usr/local/CrossPack-AVR-20131216/lib/gcc/avr/4.8.1/../../../../avr/lib/avr51/libc.a(memset.o)
                0x0000e366                memset
 .text.avr-libc
                0x0000e374       0x12 /usr/local/CrossPack-AVR-20131216/lib/gcc/avr/4.8.1/../../../../avr/lib/avr51/libc.a(strcmp.o)
                0x0000e374                strcmp
 .text.avr-libc
                0x0000e386       0x1c /usr/local/CrossPack-AVR-20131216/lib/gcc/avr/4.8.1/../../../../avr/lib/avr51/libc.a(strncmp.o)
                0x0000e386                strncmp
 .text.avr-libc
                0x0000e3a2       0x22 /usr/local/CrossPack-AVR-20131216/lib/gcc/avr/4.8.1/../../../../avr/lib/avr51/libc.a(printf.o)
                0x0000e3a2                printf
 .text.avr-libc
                0x0000e3c4       0x46 /usr/local/CrossPack-AVR-20131216/lib/gcc/avr/4.8.1/../../../../avr/lib/avr51/libc.a(printf_p.o)
                0x0000e3c4                printf_P
 .text.avr-libc
                0x0000e40a       0x5a /usr/local/CrossPack-AVR-20131216/lib/gcc/avr/4.8.1/../../../../avr/lib/avr51/libc.a(puts.o)
                0x0000e40a                puts
 .text.avr-libc
                0x0000e464        0xe /usr/local/CrossPack-AVR-20131216/lib/gcc/avr/4.8.1/../../../../avr/lib/avr51/libc.a(vprintf.o)
                0x0000e464                vprintf
 .text.avr-libc
                0x0000e472      0x3dc /usr/local/CrossPack-AVR-20131216/lib/gcc/avr/4.8.1/../../../../avr/lib/avr51/libc.a(vfprintf_std.o)
                0x0000e472                vfprintf
 .text.avr-libc
                0x0000e84e       0x20 /usr/local/CrossPack-AVR-20131216/lib/gcc/avr/4.8.1/../../../../avr/lib/avr51/libc.a(eerd_block_atmega128rfa1.o)
                0x0000e84e                __eerd_block_m128rfa1
                0x0000e852                __eerd_blraw_m128rfa1
 .text.avr-libc
                0x0000e86e       0x10 /usr/local/CrossPack-AVR-20131216/lib/gcc/avr/4.8.1/../../../../avr/lib/avr51/libc.a(eerd_byte_atmega128rfa1.o)
                0x0000e86e                __eerd_byte_m128rfa1
 .text.avr-libc
                0x0000e87e        0xa /usr/local/CrossPack-AVR-20131216/lib/gcc/avr/4.8.1/../../../../avr/lib/avr51/libc.a(eerd_word_atmega128rfa1.o)
                0x0000e87e                __eerd_word_m128rfa1
 .text.avr-libc
                0x0000e888       0x12 /usr/local/CrossPack-AVR-20131216/lib/gcc/avr/4.8.1/../../../../avr/lib/avr51/libc.a(eewr_block_atmega128rfa1.o)
                0x0000e888                __eewr_block_m128rfa1
 .text.avr-libc
                0x0000e89a       0x1c /usr/local/CrossPack-AVR-20131216/lib/gcc/avr/4.8.1/../../../../avr/lib/avr51/libc.a(eewr_byte_atmega128rfa1.o)
                0x0000e89a                __eewr_byte_m128rfa1
                0x0000e89c                __eewr_r18_m128rfa1
 .text.avr-libc
                0x0000e8b6        0x6 /usr/local/CrossPack-AVR-20131216/lib/gcc/avr/4.8.1/../../../../avr/lib/avr51/libc.a(eewr_word_atmega128rfa1.o)
                0x0000e8b6                __eewr_word_m128rfa1
 .text.avr-libc
                0x0000e8bc       0x16 /usr/local/CrossPack-AVR-20131216/lib/gcc/avr/4.8.1/../../../../avr/lib/avr51/libc.a(strnlen_P.o)
                0x0000e8bc                strnlen_P
 .text.avr-libc
                0x0000e8d2       0x16 /usr/local/CrossPack-AVR-20131216/lib/gcc/avr/4.8.1/../../../../avr/lib/avr51/libc.a(strnlen.o)
                0x0000e8d2                strnlen
 .text.avr-libc
                0x0000e8e8       0x64 /usr/local/CrossPack-AVR-20131216/lib/gcc/avr/4.8.1/../../../../avr/lib/avr51/libc.a(fputc.o)
                0x0000e8e8                fputc
 .text.avr-libc
                0x0000e94c       0xbc /usr/local/CrossPack-AVR-20131216/lib/gcc/avr/4.8.1/../../../../avr/lib/avr51/libc.a(ultoa_invert.o)
                0x0000e94c                __ultoa_invert
 .text.libgcc.div
                0x0000ea08       0x18 /usr/local/CrossPack-AVR-20131216/lib/gcc/avr/4.8.1/avr51/libgcc.a(_udivmodqi4.o)
                0x0000ea08                __udivmodqi4
 .text.libgcc.div
                0x0000ea20       0x28 /usr/local/CrossPack-AVR-20131216/lib/gcc/avr/4.8.1/avr51/libgcc.a(_udivmodhi4.o)
                0x0000ea20                __udivmodhi4
 .text.libgcc.div
                0x0000ea48       0x26 /usr/local/CrossPack-AVR-20131216/lib/gcc/avr/4.8.1/avr51/libgcc.a(_divmodhi4.o)
                0x0000ea48                __divmodhi4
                0x0000ea48                _div
 .text.libgcc.div
                0x0000ea6e       0x44 /usr/local/CrossPack-AVR-20131216/lib/gcc/avr/4.8.1/avr51/libgcc.a(_udivmodsi4.o)
                0x0000ea6e                __udivmodsi4
 .text.libgcc.div
                0x0000eab2       0x28 /usr/local/CrossPack-AVR-20131216/lib/gcc/avr/4.8.1/avr51/libgcc.a(_divmodsi4.o)
                0x0000eab2                __divmodsi4
 .text.libgcc.div
                0x0000eada       0x10 /usr/local/CrossPack-AVR-20131216/lib/gcc/avr/4.8.1/avr51/libgcc.a(_negsi2.o)
                0x0000eada                __negsi2
 .text.libgcc   0x0000eaea        0xc /usr/local/CrossPack-AVR-20131216/lib/gcc/avr/4.8.1/avr51/libgcc.a(_tablejump.o)
                0x0000eaea                __tablejump2__
                0x0000eaee                __tablejump__
 .text.libgcc.builtins
                0x0000eaf6        0xe /usr/local/CrossPack-AVR-20131216/lib/gcc/avr/4.8.1/avr51/libgcc.a(_bswapsi2.o)
                0x0000eaf6                __bswapsi2
 .text.libgcc.mul
                0x0000eb04       0x14 /usr/local/CrossPack-AVR-20131216/lib/gcc/avr/4.8.1/avr51/libgcc.a(_muluhisi3.o)
                0x0000eb04                __muluhisi3
 .text.libgcc.mul
                0x0000eb18        0xc /usr/local/CrossPack-AVR-20131216/lib/gcc/avr/4.8.1/avr51/libgcc.a(_mulshisi3.o)
                0x0000eb18                __mulshisi3
                0x0000eb1c                __mulohisi3
 .text.libgcc.prologue
                0x0000eb24       0x38 /usr/local/CrossPack-AVR-20131216/lib/gcc/avr/4.8.1/avr51/libgcc.a(_prologue.o)
                0x0000eb24                __prologue_saves__
 .text.libgcc.prologue
                0x0000eb5c       0x36 /usr/local/CrossPack-AVR-20131216/lib/gcc/avr/4.8.1/avr51/libgcc.a(_epilogue.o)
                0x0000eb5c                __epilogue_restores__
 .text.libgcc.mul
                0x0000eb92       0x1e /usr/local/CrossPack-AVR-20131216/lib/gcc/avr/4.8.1/avr51/libgcc.a(_umulhisi3.o)
                0x0000eb92                __umulhisi3
                0x0000ebb0                . = ALIGN (0x2)
 *(.fini9)
 .fini9         0x0000ebb0        0x0 /usr/local/CrossPack-AVR-20131216/lib/gcc/avr/4.8.1/avr51/libgcc.a(_exit.o)
                0x0000ebb0                _exit
 *(.fini9)
 *(.fini8)
 *(.fini8)
 *(.fini7)
 *(.fini7)
 *(.fini6)
 *(.fini6)
 *(.fini5)
 *(.fini5)
 *(.fini4)
 *(.fini4)
 *(.fini3)
 *(.fini3)
 *(.fini2)
 *(.fini2)
 *(.fini1)
 *(.fini1)
 *(.fini0)
 .fini0         0x0000ebb0        0x4 /usr/local/CrossPack-AVR-20131216/lib/gcc/avr/4.8.1/avr51/libgcc.a(_exit.o)
 *(.fini0)
                0x0000ebb4                _etext = .

.data           0x00800200      0x944 load address 0x0000ebb4
                0x00800200                PROVIDE (__data_start, .)
 *(.data)
 .data          0x00800200        0x0 /usr/local/CrossPack-AVR-20131216/lib/gcc/avr/4.8.1/../../../../avr/lib/avr51/crtm128rfa1.o
 .data          0x00800200        0x0 /usr/local/CrossPack-AVR-20131216/lib/gcc/avr/4.8.1/../../../../avr/lib/avr51/libc.a(exit.o)
 .data          0x00800200        0x0 loociCore.co
 .data          0x00800200        0x0 obj_avr-zigduino/tempSensor.o
 .data          0x00800200        0x0 obj_avr-zigduino/image-init.o
 .data          0x00800200        0x0 obj_avr-zigduino/codebaseDeploymentSM.o
 .data          0x00800200        0x0 obj_avr-zigduino/debug.o
 .data          0x00800200        0x0 obj_avr-zigduino/looci.o
 .data          0x00800200        0x0 obj_avr-zigduino/codebaseManager.o
 .data          0x00800200        0x0 obj_avr-zigduino/componentManager.o
 .data          0x00800200        0x0 obj_avr-zigduino/comp_services.o
 .data          0x00800200        0x0 obj_avr-zigduino/event.o
 .data          0x00800200        0x0 obj_avr-zigduino/eventBus.o
 .data          0x00800200        0x0 obj_avr-zigduino/triggermodule.o
 .data          0x00800200        0x0 obj_avr-zigduino/interceptor.o
 .data          0x00800200        0x0 obj_avr-zigduino/vector.o
 .data          0x00800200        0x0 obj_avr-zigduino/mmem.o
 .data          0x00800200        0x0 obj_avr-zigduino/utils.o
 .data          0x00800200        0x0 obj_avr-zigduino/hexCoding.o
 .data          0x00800200        0x0 obj_avr-zigduino/timer_utils.o
 .data          0x00800200        0x0 obj_avr-zigduino/keyList.o
 .data          0x00800200        0x0 obj_avr-zigduino/networking.o
 .data          0x00800200        0x0 obj_avr-zigduino/peers.o
 .data          0x00800200        0x0 obj_avr-zigduino/smartmesh.o
 .data          0x00800200        0x0 obj_avr-zigduino/runtime_control_local.o
 .data          0x00800200        0x0 obj_avr-zigduino/introspection_local.o
 .data          0x00800200        0x0 obj_avr-zigduino/reconfigurationEngine.o
 .data          0x00800200        0x0 contiki-avr-zigduino.a(process.o)
 .data          0x00800200        0x0 contiki-avr-zigduino.a(elfloader.o)
 .data          0x00800200        0x0 contiki-avr-zigduino.a(memb.o)
 .data          0x00800200        0x0 contiki-avr-zigduino.a(list.o)
 .data          0x00800200        0x0 contiki-avr-zigduino.a(etimer.o)
 .data          0x00800200        0x0 contiki-avr-zigduino.a(ctimer.o)
 .data          0x00800200        0x0 contiki-avr-zigduino.a(random.o)
 .data          0x00800200        0x0 contiki-avr-zigduino.a(dn_ipmt.o)
 .data          0x00800200        0x0 contiki-avr-zigduino.a(dn_endianness.o)
 .data          0x00800200        0x0 contiki-avr-zigduino.a(rs232.o)
 .data          0x00800200        0x0 contiki-avr-zigduino.a(cfs-eeprom.o)
 .data          0x00800200        0x0 contiki-avr-zigduino.a(eeprom.o)
 .data          0x00800200        0x0 contiki-avr-zigduino.a(sensors.o)
 .data          0x00800200        0x0 contiki-avr-zigduino.a(contiki-main.o)
 .data          0x00800200        0x0 contiki-avr-zigduino.a(params.o)
 .data          0x00800200        0x0 contiki-avr-zigduino.a(button-sensor.o)
 .data          0x00800200        0x0 contiki-avr-zigduino.a(clock.o)
 .data          0x00800200        0x0 contiki-avr-zigduino.a(watchdog.o)
 .data          0x00800200        0x0 contiki-avr-zigduino.a(elfloader-avr.o)
 .data          0x00800200        0x0 contiki-avr-zigduino.a(symtab-avr.o)
 .data          0x00800200        0x0 contiki-avr-zigduino.a(rf230bb.o)
 .data          0x00800200        0x0 contiki-avr-zigduino.a(halbb.o)
 .data          0x00800200        0x0 contiki-avr-zigduino.a(rimeaddr.o)
 .data          0x00800200        0x0 contiki-avr-zigduino.a(nullmac.o)
 .data          0x00800200        0x0 contiki-avr-zigduino.a(sicslowmac.o)
 .data          0x00800200        0x0 contiki-avr-zigduino.a(autostart.o)
 .data          0x00800200        0x0 contiki-avr-zigduino.a(serial-line.o)
 .data          0x00800200        0x0 contiki-avr-zigduino.a(timer.o)
 .data          0x00800200        0x0 contiki-avr-zigduino.a(rtimer.o)
 .data          0x00800200        0x0 contiki-avr-zigduino.a(ringbuf.o)
 .data          0x00800200        0x0 contiki-avr-zigduino.a(packetbuf.o)
 .data          0x00800200        0x0 contiki-avr-zigduino.a(queuebuf.o)
 .data          0x00800200        0x0 contiki-avr-zigduino.a(sicslowpan.o)
 .data          0x00800200        0x0 contiki-avr-zigduino.a(tcpip.o)
 .data          0x00800200        0x0 contiki-avr-zigduino.a(uip-ds6-route.o)
 .data          0x00800200        0x0 contiki-avr-zigduino.a(uip-ds6-nbr.o)
 .data          0x00800200        0x0 contiki-avr-zigduino.a(uip-ds6.o)
 .data          0x00800200        0x0 contiki-avr-zigduino.a(uip-nd6.o)
 .data          0x00800200        0x0 contiki-avr-zigduino.a(uip-packetqueue)
 .data          0x00800200        0x0 contiki-avr-zigduino.a(uip-split.o)
 .data          0x00800200        0x0 contiki-avr-zigduino.a(uip6.o)
 .data          0x00800200        0x0 contiki-avr-zigduino.a(dn_serial_mt.o)
 .data          0x00800200        0x0 contiki-avr-zigduino.a(dn_hdlc.o)
 .data          0x00800200        0x0 contiki-avr-zigduino.a(rtimer-arch.o)
 .data          0x00800200        0x0 contiki-avr-zigduino.a(frame802154.o)
 .data          0x00800200        0x0 contiki-avr-zigduino.a(framer-802154.o)
 .data          0x00800200        0x0 contiki-avr-zigduino.a(stimer.o)
 .data          0x00800200        0x0 contiki-avr-zigduino.a(nbr-table.o)
 .data          0x00800200        0x0 contiki-avr-zigduino.a(uip-icmp6.o)
 .data          0x00800200        0x0 /var/folders/kw/xp_j5cy50g5fm6r3w446d9rm0000gn/T//cckXVcIg.o
 .data          0x00800200        0x6 /usr/local/CrossPack-AVR-20131216/lib/gcc/avr/4.8.1/../../../../avr/lib/avr51/libc.a(malloc.o)
                0x00800200                __malloc_heap_end
                0x00800202                __malloc_heap_start
                0x00800204                __malloc_margin
 .data          0x00800206        0x4 /usr/local/CrossPack-AVR-20131216/lib/gcc/avr/4.8.1/../../../../avr/lib/avr51/libc.a(rand.o)
 .data          0x0080020a        0x0 /usr/local/CrossPack-AVR-20131216/lib/gcc/avr/4.8.1/../../../../avr/lib/avr51/libc.a(memcpy_P.o)
 .data          0x0080020a        0x0 /usr/local/CrossPack-AVR-20131216/lib/gcc/avr/4.8.1/../../../../avr/lib/avr51/libc.a(strcmp_P.o)
 .data          0x0080020a        0x0 /usr/local/CrossPack-AVR-20131216/lib/gcc/avr/4.8.1/../../../../avr/lib/avr51/libc.a(memcmp.o)
 .data          0x0080020a        0x0 /usr/local/CrossPack-AVR-20131216/lib/gcc/avr/4.8.1/../../../../avr/lib/avr51/libc.a(memcpy.o)
 .data          0x0080020a        0x0 /usr/local/CrossPack-AVR-20131216/lib/gcc/avr/4.8.1/../../../../avr/lib/avr51/libc.a(memmove.o)
 .data          0x0080020a        0x0 /usr/local/CrossPack-AVR-20131216/lib/gcc/avr/4.8.1/../../../../avr/lib/avr51/libc.a(memset.o)
 .data          0x0080020a        0x0 /usr/local/CrossPack-AVR-20131216/lib/gcc/avr/4.8.1/../../../../avr/lib/avr51/libc.a(strcmp.o)
 .data          0x0080020a        0x0 /usr/local/CrossPack-AVR-20131216/lib/gcc/avr/4.8.1/../../../../avr/lib/avr51/libc.a(strncmp.o)
 .data          0x0080020a        0x0 /usr/local/CrossPack-AVR-20131216/lib/gcc/avr/4.8.1/../../../../avr/lib/avr51/libc.a(iob.o)
 .data          0x0080020a        0x0 /usr/local/CrossPack-AVR-20131216/lib/gcc/avr/4.8.1/../../../../avr/lib/avr51/libc.a(printf.o)
 .data          0x0080020a        0x0 /usr/local/CrossPack-AVR-20131216/lib/gcc/avr/4.8.1/../../../../avr/lib/avr51/libc.a(printf_p.o)
 .data          0x0080020a        0x0 /usr/local/CrossPack-AVR-20131216/lib/gcc/avr/4.8.1/../../../../avr/lib/avr51/libc.a(puts.o)
 .data          0x0080020a        0x0 /usr/local/CrossPack-AVR-20131216/lib/gcc/avr/4.8.1/../../../../avr/lib/avr51/libc.a(vprintf.o)
 .data          0x0080020a        0x0 /usr/local/CrossPack-AVR-20131216/lib/gcc/avr/4.8.1/../../../../avr/lib/avr51/libc.a(vfprintf_std.o)
 .data          0x0080020a        0x0 /usr/local/CrossPack-AVR-20131216/lib/gcc/avr/4.8.1/../../../../avr/lib/avr51/libc.a(eerd_block_atmega128rfa1.o)
 .data          0x0080020a        0x0 /usr/local/CrossPack-AVR-20131216/lib/gcc/avr/4.8.1/../../../../avr/lib/avr51/libc.a(eerd_byte_atmega128rfa1.o)
 .data          0x0080020a        0x0 /usr/local/CrossPack-AVR-20131216/lib/gcc/avr/4.8.1/../../../../avr/lib/avr51/libc.a(eerd_word_atmega128rfa1.o)
 .data          0x0080020a        0x0 /usr/local/CrossPack-AVR-20131216/lib/gcc/avr/4.8.1/../../../../avr/lib/avr51/libc.a(eewr_block_atmega128rfa1.o)
 .data          0x0080020a        0x0 /usr/local/CrossPack-AVR-20131216/lib/gcc/avr/4.8.1/../../../../avr/lib/avr51/libc.a(eewr_byte_atmega128rfa1.o)
 .data          0x0080020a        0x0 /usr/local/CrossPack-AVR-20131216/lib/gcc/avr/4.8.1/../../../../avr/lib/avr51/libc.a(eewr_word_atmega128rfa1.o)
 .data          0x0080020a        0x0 /usr/local/CrossPack-AVR-20131216/lib/gcc/avr/4.8.1/../../../../avr/lib/avr51/libc.a(strnlen_P.o)
 .data          0x0080020a        0x0 /usr/local/CrossPack-AVR-20131216/lib/gcc/avr/4.8.1/../../../../avr/lib/avr51/libc.a(strnlen.o)
 .data          0x0080020a        0x0 /usr/local/CrossPack-AVR-20131216/lib/gcc/avr/4.8.1/../../../../avr/lib/avr51/libc.a(fputc.o)
 .data          0x0080020a        0x0 /usr/local/CrossPack-AVR-20131216/lib/gcc/avr/4.8.1/../../../../avr/lib/avr51/libc.a(ultoa_invert.o)
 .data          0x0080020a        0x0 /usr/local/CrossPack-AVR-20131216/lib/gcc/avr/4.8.1/avr51/libgcc.a(_udivmodqi4.o)
 .data          0x0080020a        0x0 /usr/local/CrossPack-AVR-20131216/lib/gcc/avr/4.8.1/avr51/libgcc.a(_udivmodhi4.o)
 .data          0x0080020a        0x0 /usr/local/CrossPack-AVR-20131216/lib/gcc/avr/4.8.1/avr51/libgcc.a(_divmodhi4.o)
 .data          0x0080020a        0x0 /usr/local/CrossPack-AVR-20131216/lib/gcc/avr/4.8.1/avr51/libgcc.a(_udivmodsi4.o)
 .data          0x0080020a        0x0 /usr/local/CrossPack-AVR-20131216/lib/gcc/avr/4.8.1/avr51/libgcc.a(_divmodsi4.o)
 .data          0x0080020a        0x0 /usr/local/CrossPack-AVR-20131216/lib/gcc/avr/4.8.1/avr51/libgcc.a(_negsi2.o)
 .data          0x0080020a        0x0 /usr/local/CrossPack-AVR-20131216/lib/gcc/avr/4.8.1/avr51/libgcc.a(_exit.o)
 .data          0x0080020a        0x0 /usr/local/CrossPack-AVR-20131216/lib/gcc/avr/4.8.1/avr51/libgcc.a(_tablejump.o)
 .data          0x0080020a        0x0 /usr/local/CrossPack-AVR-20131216/lib/gcc/avr/4.8.1/avr51/libgcc.a(_copy_data.o)
 .data          0x0080020a        0x0 /usr/local/CrossPack-AVR-20131216/lib/gcc/avr/4.8.1/avr51/libgcc.a(_clear_bss.o)
 .data          0x0080020a        0x0 /usr/local/CrossPack-AVR-20131216/lib/gcc/avr/4.8.1/avr51/libgcc.a(_bswapsi2.o)
 .data          0x0080020a        0x0 /usr/local/CrossPack-AVR-20131216/lib/gcc/avr/4.8.1/avr51/libgcc.a(_muluhisi3.o)
 .data          0x0080020a        0x0 /usr/local/CrossPack-AVR-20131216/lib/gcc/avr/4.8.1/avr51/libgcc.a(_mulshisi3.o)
 .data          0x0080020a        0x0 /usr/local/CrossPack-AVR-20131216/lib/gcc/avr/4.8.1/avr51/libgcc.a(_prologue.o)
 .data          0x0080020a        0x0 /usr/local/CrossPack-AVR-20131216/lib/gcc/avr/4.8.1/avr51/libgcc.a(_epilogue.o)
 .data          0x0080020a        0x0 /usr/local/CrossPack-AVR-20131216/lib/gcc/avr/4.8.1/avr51/libgcc.a(_umulhisi3.o)
 *(.data*)
 .data.looci    0x0080020a        0x8 loociCore.co
                0x0080020a                looci
 .data.temp_sample__C
                0x00800212        0x2 obj_avr-zigduino/tempSensor.o
                0x00800212                temp_sample__C
 .data.temp_sample_Lc
                0x00800214       0x15 obj_avr-zigduino/tempSensor.o
                0x00800214                temp_sample_Lc
 .data.temp_sample_C
                0x00800229        0x2 obj_avr-zigduino/tempSensor.o
 .data.looci_component_store
                0x0080022b        0x8 obj_avr-zigduino/codebaseDeploymentSM.o
                0x0080022b                looci_component_store
 .data.v_components
                0x00800233        0x5 obj_avr-zigduino/componentManager.o
 .data.subscriptions_from_remote
                0x00800238        0x5 obj_avr-zigduino/eventBus.o
 .data.subscriptions_to_remote
                0x0080023d        0x5 obj_avr-zigduino/eventBus.o
 .data.subscriptions
                0x00800242        0x5 obj_avr-zigduino/eventBus.o
 .data.looci_event_manager
                0x00800247        0x8 obj_avr-zigduino/eventBus.o
                0x00800247                looci_event_manager
 .data.events   0x0080024f        0x8 obj_avr-zigduino/eventBus.o
 .data.fromComp
                0x00800257        0x6 obj_avr-zigduino/triggermodule.o
 .data.fromNet  0x0080025d        0x6 obj_avr-zigduino/triggermodule.o
 .data.looci_networking_framework
                0x00800263        0x8 obj_avr-zigduino/networking.o
                0x00800263                looci_networking_framework
 .data.next_id  0x0080026b        0x1 obj_avr-zigduino/peers.o
 .data.peers    0x0080026c        0x5 obj_avr-zigduino/peers.o
 .data.looci_smartmeship
                0x00800271        0x8 obj_avr-zigduino/smartmesh.o
                0x00800271                looci_smartmeship
 .data.reconfig__C
                0x00800279        0x2 obj_avr-zigduino/reconfigurationEngine.o
                0x00800279                reconfig__C
 .data.reconfig_Lc
                0x0080027b       0x15 obj_avr-zigduino/reconfigurationEngine.o
                0x0080027b                reconfig_Lc
 .data.reconfig_C
                0x00800290        0x2 obj_avr-zigduino/reconfigurationEngine.o
 .data.etimer_process
                0x00800292        0x8 contiki-avr-zigduino.a(etimer.o)
                0x00800292                etimer_process
 .data.ctimer_process
                0x0080029a        0x8 contiki-avr-zigduino.a(ctimer.o)
                0x0080029a                ctimer_process
 .data.rs232_stdout
                0x008002a2        0xe contiki-avr-zigduino.a(rs232.o)
 .data.sensors_process
                0x008002b0        0x8 contiki-avr-zigduino.a(sensors.o)
                0x008002b0                sensors_process
 .data.rf230_process
                0x008002b8        0x8 contiki-avr-zigduino.a(rf230bb.o)
                0x008002b8                rf230_process
 .data.serial_line_process
                0x008002c0        0x8 contiki-avr-zigduino.a(serial-line.o)
                0x008002c0                serial_line_process
 .data.buframmem
                0x008002c8        0x8 contiki-avr-zigduino.a(queuebuf.o)
 .data.refbufmem
                0x008002d0        0x8 contiki-avr-zigduino.a(queuebuf.o)
 .data.bufmem   0x008002d8        0x8 contiki-avr-zigduino.a(queuebuf.o)
 .data.tcpip_process
                0x008002e0        0x8 contiki-avr-zigduino.a(tcpip.o)
                0x008002e0                tcpip_process
 .data.defaultroutermemb
                0x008002e8        0x8 contiki-avr-zigduino.a(uip-ds6-route.o)
 .data.routememb
                0x008002f0        0x8 contiki-avr-zigduino.a(uip-ds6-route.o)
 .data.nbr_routes_struct
                0x008002f8        0x8 contiki-avr-zigduino.a(uip-ds6-route.o)
 .data.ds6_neighbors
                0x00800300        0x2 contiki-avr-zigduino.a(uip-ds6-nbr.o)
                0x00800300                ds6_neighbors
 .data.ds6_neighbors_struct
                0x00800302        0x8 contiki-avr-zigduino.a(uip-ds6-nbr.o)
 .data.packets_memb
                0x0080030a        0x8 contiki-avr-zigduino.a(uip-packetqueue)
 .data.neighbor_addr_mem
                0x00800312        0x8 contiki-avr-zigduino.a(nbr-table.o)
 *(.rodata)
 *(.rodata*)
 .rodata.autostart_processes
                0x0080031a        0x4 loociCore.co
                0x0080031a                autostart_processes
 .rodata.str1.1
                0x0080031e      0x112 obj_avr-zigduino/smartmesh.o
 .rodata.ipv6Addr_manager
                0x00800430       0x10 obj_avr-zigduino/smartmesh.o
 .rodata.str1.1
                0x00800440      0x2eb contiki-avr-zigduino.a(elfloader.o)
                                0x2ff (size before relaxing)
 .rodata.elf_magic_header
                0x0080072b        0x7 contiki-avr-zigduino.a(elfloader.o)
 .rodata.str1.1
                0x00800732       0x21 contiki-avr-zigduino.a(dn_ipmt.o)
 .rodata.str1.1
                0x00800753       0x2c contiki-avr-zigduino.a(contiki-main.o)
 .rodata.rf230_driver
                0x0080077f       0x14 contiki-avr-zigduino.a(rf230bb.o)
                0x0080077f                rf230_driver
 .rodata.rimeaddr_null
                0x00800793        0x8 contiki-avr-zigduino.a(rimeaddr.o)
                0x00800793                rimeaddr_null
 .rodata.str1.1
                0x0080079b        0x8 contiki-avr-zigduino.a(nullmac.o)
 .rodata.nullmac_driver
                0x008007a3        0xe contiki-avr-zigduino.a(nullmac.o)
                0x008007a3                nullmac_driver
 .rodata.str1.1
                0x008007b1        0xb contiki-avr-zigduino.a(sicslowmac.o)
 .rodata.sicslowmac_driver
                0x008007bc       0x10 contiki-avr-zigduino.a(sicslowmac.o)
                0x008007bc                sicslowmac_driver
 .rodata.str1.1
                0x008007cc        0xb contiki-avr-zigduino.a(sicslowpan.o)
 .rodata.sicslowpan_driver
                0x008007d7        0x6 contiki-avr-zigduino.a(sicslowpan.o)
                0x008007d7                sicslowpan_driver
 .rodata.ttl_values
                0x008007dd        0x4 contiki-avr-zigduino.a(sicslowpan.o)
 .rodata.llprefix
                0x008007e1        0x2 contiki-avr-zigduino.a(sicslowpan.o)
                0x008007e1                llprefix
 .rodata.unc_mxconf
                0x008007e3        0x4 contiki-avr-zigduino.a(sicslowpan.o)
                0x008007e3                unc_mxconf
 .rodata.unc_ctxconf
                0x008007e7        0x4 contiki-avr-zigduino.a(sicslowpan.o)
                0x008007e7                unc_ctxconf
 .rodata.unc_llconf
                0x008007eb        0x4 contiki-avr-zigduino.a(sicslowpan.o)
                0x008007eb                unc_llconf
 .rodata.str1.1
                0x008007ef      0x10e contiki-avr-zigduino.a(uip6.o)
 .rodata.str1.1
                0x008008fd       0x25 contiki-avr-zigduino.a(dn_serial_mt.o)
 .rodata.str1.1
                0x00800922       0x1e contiki-avr-zigduino.a(dn_hdlc.o)
 .rodata.dn_hdlc_fcstab
                0x00800940      0x200 contiki-avr-zigduino.a(dn_hdlc.o)
 .rodata.framer_802154
                0x00800b40        0x4 contiki-avr-zigduino.a(framer-802154.o)
                0x00800b40                framer_802154
 *(.gnu.linkonce.d*)
                0x00800b44                . = ALIGN (0x2)
                0x00800b44                _edata = .
                0x00800b44                PROVIDE (__data_end, .)

.bss            0x00800b44     0x2d89
                0x00800b44                PROVIDE (__bss_start, .)
 *(.bss)
 *(.bss*)
 .bss.rxd.6269  0x00800b44        0x2 obj_avr-zigduino/codebaseDeploymentSM.o
 .bss.written.6268
                0x00800b46        0x2 obj_avr-zigduino/codebaseDeploymentSM.o
 .bss.connectionState
                0x00800b48        0x6 obj_avr-zigduino/codebaseDeploymentSM.o
 .bss.codebases_list
                0x00800b4e        0x2 obj_avr-zigduino/codebaseManager.o
 .bss.vector_block_v_components
                0x00800b50       0x1e obj_avr-zigduino/componentManager.o
 .bss.vector_block_subscriptions_from_remote
                0x00800b6e        0xc obj_avr-zigduino/eventBus.o
 .bss.vector_block_subscriptions_to_remote
                0x00800b7a        0xa obj_avr-zigduino/eventBus.o
 .bss.vector_block_subscriptions
                0x00800b84        0xa obj_avr-zigduino/eventBus.o
 .bss.currentEvent
                0x00800b8e        0x2 obj_avr-zigduino/eventBus.o
 .bss.events_memb_mem
                0x00800b90      0x10e obj_avr-zigduino/eventBus.o
 .bss.events_memb_count
                0x00800c9e        0x5 obj_avr-zigduino/eventBus.o
 .bss.interceptors_list
                0x00800ca3        0x2 obj_avr-zigduino/interceptor.o
 .bss.memory    0x00800ca5      0x7d0 obj_avr-zigduino/mmem.o
 .bss.mmemlist_list
                0x00801475        0x2 obj_avr-zigduino/mmem.o
 .bss.i.4812    0x00801477        0x1 obj_avr-zigduino/peers.o
 .bss.vector_block_peers
                0x00801478       0x46 obj_avr-zigduino/peers.o
 .bss.looci_reconf_P
                0x008014be        0x2 obj_avr-zigduino/reconfigurationEngine.o
 .bss.looci_intro_P
                0x008014c0        0x2 obj_avr-zigduino/reconfigurationEngine.o
 .bss.snum.2862
                0x008014c2        0x1 contiki-avr-zigduino.a(process.o)
 .bss.p.2847    0x008014c3        0x2 contiki-avr-zigduino.a(process.o)
 .bss.receiver.2846
                0x008014c5        0x2 contiki-avr-zigduino.a(process.o)
 .bss.data.2845
                0x008014c7        0x2 contiki-avr-zigduino.a(process.o)
 .bss.ev.2844   0x008014c9        0x1 contiki-avr-zigduino.a(process.o)
 .bss.poll_requested
                0x008014ca        0x1 contiki-avr-zigduino.a(process.o)
 .bss.events    0x008014cb       0xa0 contiki-avr-zigduino.a(process.o)
 .bss.fevent    0x0080156b        0x1 contiki-avr-zigduino.a(process.o)
 .bss.nevents   0x0080156c        0x1 contiki-avr-zigduino.a(process.o)
 .bss.lastevent
                0x0080156d        0x1 contiki-avr-zigduino.a(process.o)
 .bss.process_current
                0x0080156e        0x2 contiki-avr-zigduino.a(process.o)
                0x0080156e                process_current
 .bss.process_list
                0x00801570        0x2 contiki-avr-zigduino.a(process.o)
                0x00801570                process_list
 .bss.text      0x00801572        0x7 contiki-avr-zigduino.a(elfloader.o)
 .bss.rodata    0x00801579        0x7 contiki-avr-zigduino.a(elfloader.o)
 .bss.data      0x00801580        0x7 contiki-avr-zigduino.a(elfloader.o)
 .bss.bss       0x00801587        0x7 contiki-avr-zigduino.a(elfloader.o)
 .bss.next_expiration
                0x0080158e        0x2 contiki-avr-zigduino.a(etimer.o)
 .bss.timerlist
                0x00801590        0x2 contiki-avr-zigduino.a(etimer.o)
 .bss.initialized
                0x00801592        0x1 contiki-avr-zigduino.a(ctimer.o)
 .bss.ctimer_list_list
                0x00801593        0x2 contiki-avr-zigduino.a(ctimer.o)
 .bss.stdout_rs232_port
                0x00801595        0x1 contiki-avr-zigduino.a(rs232.o)
 .bss.file      0x00801596        0x6 contiki-avr-zigduino.a(cfs-eeprom.o)
 .bss.events.2946
                0x0080159c        0x2 contiki-avr-zigduino.a(sensors.o)
 .bss.i.2945    0x0080159e        0x2 contiki-avr-zigduino.a(sensors.o)
 .bss.num_sensors
                0x008015a0        0x1 contiki-avr-zigduino.a(sensors.o)
 .bss.scount    0x008015a1        0x1 contiki-avr-zigduino.a(clock.o)
 .bss.count     0x008015a2        0x2 contiki-avr-zigduino.a(clock.o)
 .bss.module_heap
                0x008015a4      0x180 contiki-avr-zigduino.a(elfloader-avr.o)
 .bss.buffer    0x00801724       0x81 contiki-avr-zigduino.a(rf230bb.o)
 .bss.channel   0x008017a5        0x1 contiki-avr-zigduino.a(rf230bb.o)
 .bss.mac_dsn   0x008017a6        0x1 contiki-avr-zigduino.a(sicslowmac.o)
 .bss.overflow.2924
                0x008017a7        0x1 contiki-avr-zigduino.a(serial-line.o)
 .bss.buf.2930  0x008017a8       0x80 contiki-avr-zigduino.a(serial-line.o)
 .bss.ptr.2931  0x00801828        0x2 contiki-avr-zigduino.a(serial-line.o)
 .bss.rxbuf     0x0080182a        0x5 contiki-avr-zigduino.a(serial-line.o)
 .bss.next_rtimer
                0x0080182f        0x2 contiki-avr-zigduino.a(rtimer.o)
 .bss.packetbufptr
                0x00801831        0x2 contiki-avr-zigduino.a(packetbuf.o)
 .bss.packetbuf_aligned
                0x00801833       0xb2 contiki-avr-zigduino.a(packetbuf.o)
 .bss.hdrptr    0x008018e5        0x1 contiki-avr-zigduino.a(packetbuf.o)
 .bss.bufptr    0x008018e6        0x2 contiki-avr-zigduino.a(packetbuf.o)
 .bss.buflen    0x008018e8        0x2 contiki-avr-zigduino.a(packetbuf.o)
 .bss.buframmem_memb_mem
                0x008018ea      0x276 contiki-avr-zigduino.a(queuebuf.o)
 .bss.buframmem_memb_count
                0x00801b60        0x3 contiki-avr-zigduino.a(queuebuf.o)
 .bss.refbufmem_memb_mem
                0x00801b63       0x6a contiki-avr-zigduino.a(queuebuf.o)
 .bss.refbufmem_memb_count
                0x00801bcd        0x2 contiki-avr-zigduino.a(queuebuf.o)
 .bss.bufmem_memb_mem
                0x00801bcf        0x6 contiki-avr-zigduino.a(queuebuf.o)
 .bss.bufmem_memb_count
                0x00801bd5        0x3 contiki-avr-zigduino.a(queuebuf.o)
 .bss.hc06_ptr  0x00801bd8        0x2 contiki-avr-zigduino.a(sicslowpan.o)
 .bss.context   0x00801bda        0x2 contiki-avr-zigduino.a(sicslowpan.o)
 .bss.addr_contexts
                0x00801bdc        0xa contiki-avr-zigduino.a(sicslowpan.o)
 .bss.callback  0x00801be6        0x2 contiki-avr-zigduino.a(sicslowpan.o)
 .bss.reass_timer
                0x00801be8        0x4 contiki-avr-zigduino.a(sicslowpan.o)
 .bss.reass_tag
                0x00801bec        0x2 contiki-avr-zigduino.a(sicslowpan.o)
 .bss.my_tag    0x00801bee        0x2 contiki-avr-zigduino.a(sicslowpan.o)
 .bss.processed_ip_in_len
                0x00801bf0        0x2 contiki-avr-zigduino.a(sicslowpan.o)
 .bss.sicslowpan_aligned_buf
                0x00801bf2      0x514 contiki-avr-zigduino.a(sicslowpan.o)
 .bss.sicslowpan_len
                0x00802106        0x2 contiki-avr-zigduino.a(sicslowpan.o)
 .bss.last_tx_status
                0x00802108        0x2 contiki-avr-zigduino.a(sicslowpan.o)
 .bss.uncomp_hdr_len
                0x0080210a        0x1 contiki-avr-zigduino.a(sicslowpan.o)
 .bss.rime_payload_len
                0x0080210b        0x1 contiki-avr-zigduino.a(sicslowpan.o)
 .bss.rime_hdr_len
                0x0080210c        0x1 contiki-avr-zigduino.a(sicslowpan.o)
 .bss.rime_ptr  0x0080210d        0x2 contiki-avr-zigduino.a(sicslowpan.o)
 .bss.i.5025    0x0080210f        0x1 contiki-avr-zigduino.a(tcpip.o)
 .bss.i.4983    0x00802110        0x1 contiki-avr-zigduino.a(tcpip.o)
 .bss.i.5037    0x00802111        0x1 contiki-avr-zigduino.a(tcpip.o)
 .bss.outputfunc
                0x00802112        0x2 contiki-avr-zigduino.a(tcpip.o)
 .bss.s         0x00802114        0xe contiki-avr-zigduino.a(tcpip.o)
 .bss.periodic  0x00802122        0x8 contiki-avr-zigduino.a(tcpip.o)
 .bss.num_routes
                0x0080212a        0x2 contiki-avr-zigduino.a(uip-ds6-route.o)
 .bss.notificationlist_list
                0x0080212c        0x2 contiki-avr-zigduino.a(uip-ds6-route.o)
 .bss.defaultroutermemb_memb_mem
                0x0080212e       0x36 contiki-avr-zigduino.a(uip-ds6-route.o)
 .bss.defaultroutermemb_memb_count
                0x00802164        0x2 contiki-avr-zigduino.a(uip-ds6-route.o)
 .bss.defaultrouterlist_list
                0x00802166        0x2 contiki-avr-zigduino.a(uip-ds6-route.o)
 .bss.routememb_memb_mem
                0x00802168       0x74 contiki-avr-zigduino.a(uip-ds6-route.o)
 .bss.routememb_memb_count
                0x008021dc        0x4 contiki-avr-zigduino.a(uip-ds6-route.o)
 .bss._nbr_routes_mem
                0x008021e0       0x10 contiki-avr-zigduino.a(uip-ds6-route.o)
 .bss._ds6_neighbors_mem
                0x008021f0       0x94 contiki-avr-zigduino.a(uip-ds6-nbr.o)
 .bss.locprefix
                0x00802284        0x2 contiki-avr-zigduino.a(uip-ds6.o)
 .bss.locmaddr  0x00802286        0x2 contiki-avr-zigduino.a(uip-ds6.o)
 .bss.locaddr   0x00802288        0x2 contiki-avr-zigduino.a(uip-ds6.o)
 .bss.loc_fipaddr
                0x0080228a       0x10 contiki-avr-zigduino.a(uip-ds6.o)
 .bss.rscount   0x0080229a        0x1 contiki-avr-zigduino.a(uip-ds6.o)
 .bss.addr      0x0080229b        0x2 contiki-avr-zigduino.a(uip-nd6.o)
 .bss.defrt     0x0080229d        0x2 contiki-avr-zigduino.a(uip-nd6.o)
 .bss.nbr       0x0080229f        0x2 contiki-avr-zigduino.a(uip-nd6.o)
 .bss.prefix    0x008022a1        0x2 contiki-avr-zigduino.a(uip-nd6.o)
 .bss.ipaddr    0x008022a3       0x10 contiki-avr-zigduino.a(uip-nd6.o)
 .bss.nd6_opt_prefix_info
                0x008022b3        0x2 contiki-avr-zigduino.a(uip-nd6.o)
 .bss.nd6_opt_llao
                0x008022b5        0x2 contiki-avr-zigduino.a(uip-nd6.o)
 .bss.nd6_opt_offset
                0x008022b7        0x1 contiki-avr-zigduino.a(uip-nd6.o)
 .bss.packets_memb_memb_mem
                0x008022b8      0xa54 contiki-avr-zigduino.a(uip-packetqueue)
 .bss.packets_memb_memb_count
                0x00802d0c        0x2 contiki-avr-zigduino.a(uip-packetqueue)
 .bss.tmp16     0x00802d0e        0x2 contiki-avr-zigduino.a(uip6.o)
 .bss.opt       0x00802d10        0x1 contiki-avr-zigduino.a(uip6.o)
 .bss.iss       0x00802d11        0x4 contiki-avr-zigduino.a(uip6.o)
 .bss.lastport  0x00802d15        0x2 contiki-avr-zigduino.a(uip6.o)
 .bss.c         0x00802d17        0x1 contiki-avr-zigduino.a(uip6.o)
 .bss.uip_ext_opt_offset
                0x00802d18        0x1 contiki-avr-zigduino.a(uip6.o)
                0x00802d18                uip_ext_opt_offset
 .bss.uip_ext_len
                0x00802d19        0x1 contiki-avr-zigduino.a(uip6.o)
                0x00802d19                uip_ext_len
 .bss.uip_ext_bitmap
                0x00802d1a        0x1 contiki-avr-zigduino.a(uip6.o)
                0x00802d1a                uip_ext_bitmap
 .bss.initialized
                0x00802d1b        0x1 contiki-avr-zigduino.a(framer-802154.o)
 .bss.mac_dsn   0x00802d1c        0x1 contiki-avr-zigduino.a(framer-802154.o)
 .bss.nbr_table_keys_list
                0x00802d1d        0x2 contiki-avr-zigduino.a(nbr-table.o)
 .bss.neighbor_addr_mem_memb_mem
                0x00802d1f       0x28 contiki-avr-zigduino.a(nbr-table.o)
 .bss.neighbor_addr_mem_memb_count
                0x00802d47        0x4 contiki-avr-zigduino.a(nbr-table.o)
 .bss.num_tables
                0x00802d4b        0x2 contiki-avr-zigduino.a(nbr-table.o)
 .bss.all_tables
                0x00802d4d       0x10 contiki-avr-zigduino.a(nbr-table.o)
 .bss.locked_map
                0x00802d5d        0x4 contiki-avr-zigduino.a(nbr-table.o)
 .bss.used_map  0x00802d61        0x4 contiki-avr-zigduino.a(nbr-table.o)
 .bss.tmp_ipaddr
                0x00802d65       0x10 contiki-avr-zigduino.a(uip-icmp6.o)
 *(COMMON)
 COMMON         0x00802d75      0x1e5 loociCore.co
                0x00802d75                deployReply
                0x00802d85                dn_ipmt_receive_notif
                0x00802d87                app_vars
                0x00802eb6                config_timeout
                0x00802ec6                rxpayload
 COMMON         0x00802f5a        0x6 obj_avr-zigduino/codebaseDeploymentSM.o
                0x00802f5a                fptr
                0x00802f5b                ldbuf
                0x00802f5d                size
                0x00802f5f                chunk
 COMMON         0x00802f60        0x2 obj_avr-zigduino/mmem.o
                0x00802f60                avail_memory
 COMMON         0x00802f62       0x2e contiki-avr-zigduino.a(elfloader.o)
                0x00802f62                elfloader_unknown
                0x00802f80                elfloader_autostart_processes
 COMMON         0x00802f90       0x8c contiki-avr-zigduino.a(dn_ipmt.o)
                0x00802f90                dn_ipmt_vars
 COMMON         0x0080301c        0x4 contiki-avr-zigduino.a(rs232.o)
                0x0080301c                input_handler_1
                0x0080301e                input_handler_0
 COMMON         0x00803020        0x2 contiki-avr-zigduino.a(contiki-main.o)
                0x00803020                ledtimer
 COMMON         0x00803022        0x3 contiki-avr-zigduino.a(button-sensor.o)
                0x00803022                sensors_flags
                0x00803023                sensors
 COMMON         0x00803025        0x8 contiki-avr-zigduino.a(clock.o)
                0x00803025                sleepseconds
                0x00803029                seconds
 COMMON         0x0080302d       0x8c contiki-avr-zigduino.a(rf230bb.o)
                0x0080302d                rf230_last_correlation
                0x0080302e                rf230_last_rssi
                0x0080302f                rf230_smallest_rssi
                0x00803030                rf230_pending
                0x00803031                rf230_ccawait
                0x00803032                rf230_txendwait
                0x00803033                rxframe_tail
                0x00803034                rxframe_head
                0x00803035                rxframe
                0x008030b7                rf230_wakewait
                0x008030b8                RF230_receive_on
 COMMON         0x008030b9        0x8 contiki-avr-zigduino.a(rimeaddr.o)
                0x008030b9                rimeaddr_node_addr
 COMMON         0x008030c1        0x1 contiki-avr-zigduino.a(serial-line.o)
                0x008030c1                serial_line_event_message
 COMMON         0x008030c2       0x50 contiki-avr-zigduino.a(packetbuf.o)
                0x008030c2                packetbuf_addrs
                0x008030e2                packetbuf_attrs
 COMMON         0x00803112        0x8 contiki-avr-zigduino.a(sicslowpan.o)
                0x00803112                frag_sender
 COMMON         0x0080311a        0x2 contiki-avr-zigduino.a(tcpip.o)
                0x0080311a                tcpip_event
                0x0080311b                tcpip_icmp6_event
 COMMON         0x0080311c      0x13a contiki-avr-zigduino.a(uip-ds6.o)
                0x0080311c                uip_ds6_if
                0x008031f3                uip_ds6_netif_addr_list_offset
                0x008031f4                uip_ds6_addr_size
                0x008031f5                uip_ds6_prefix_list
                0x00803246                uip_ds6_timer_periodic
                0x0080324e                uip_ds6_timer_rs
 COMMON         0x00803256      0x5dc contiki-avr-zigduino.a(uip6.o)
                0x00803256                uip_len
                0x00803258                uip_sappdata
                0x0080325a                uip_acc32
                0x0080325e                uip_lladdr
                0x00803266                uip_aligned_buf
                0x0080377a                uip_flags
                0x0080377b                uip_next_hdr
                0x0080377d                uip_udp_conn
                0x0080377f                uip_appdata
                0x00803781                uip_conn
                0x00803783                uip_conns
                0x008037db                uip_icmp6_conns
                0x008037df                uip_listenports
                0x008037e5                uip_slen
                0x008037e7                uip_udp_conns
 COMMON         0x00803832        0x7 contiki-avr-zigduino.a(dn_serial_mt.o)
                0x00803832                dn_serial_mt_vars
 COMMON         0x00803839       0x8a contiki-avr-zigduino.a(dn_hdlc.o)
                0x00803839                dn_hdlc_vars
 COMMON         0x008038c3        0x4 /usr/local/CrossPack-AVR-20131216/lib/gcc/avr/4.8.1/../../../../avr/lib/avr51/libc.a(malloc.o)
                0x008038c3                __brkval
                0x008038c5                __flp
 COMMON         0x008038c7        0x6 /usr/local/CrossPack-AVR-20131216/lib/gcc/avr/4.8.1/../../../../avr/lib/avr51/libc.a(iob.o)
                0x008038c7                __iob
                0x008038cd                PROVIDE (__bss_end, .)
                0x0000ebb4                __data_load_start = LOADADDR (.data)
                0x0000f4f8                __data_load_end = (__data_load_start + SIZEOF (.data))

.noinit         0x008038cd        0x0
                0x008038cd                PROVIDE (__noinit_start, .)
 *(.noinit*)
                0x008038cd                PROVIDE (__noinit_end, .)
                0x008038cd                _end = .
                0x008038cd                PROVIDE (__heap_start, .)

.eeprom         0x00810000       0x29
 *(.eeprom*)
 .eeprom        0x00810000       0x29 contiki-avr-zigduino.a(params.o)
                0x00810000                eemem_txpower
                0x00810001                eemem_panaddr
                0x00810003                eemem_panid
                0x00810005                eemem_channel
                0x00810007                eemem_nodeid
                0x00810009                eemem_domain_name
                0x00810013                eemem_server_name
                0x00810021                eemem_mac_address
                0x00810029                __eeprom_end = .

.fuse           0x00820000        0x3
 *(.fuse)
 .fuse          0x00820000        0x3 contiki-avr-zigduino.a(contiki-main.o)
                0x00820000                __fuse
 *(.lfuse)
 *(.hfuse)
 *(.efuse)

.lock
 *(.lock*)

.signature      0x00840000        0x3
 *(.signature*)
 .signature     0x00840000        0x3 contiki-avr-zigduino.a(contiki-main.o)
                0x00840000                __signature

.user_signatures
 *(.user_signatures*)

.stab
 *(.stab)

.stabstr
 *(.stabstr)

.stab.excl
 *(.stab.excl)

.stab.exclstr
 *(.stab.exclstr)

.stab.index
 *(.stab.index)

.stab.indexstr
 *(.stab.indexstr)

.comment        0x00000000       0x11
 *(.comment)
 .comment       0x00000000       0x11 loociCore.co
                                 0x12 (size before relaxing)
 .comment       0x00000000       0x12 obj_avr-zigduino/tempSensor.o
 .comment       0x00000000       0x12 obj_avr-zigduino/image-init.o
 .comment       0x00000000       0x12 obj_avr-zigduino/codebaseDeploymentSM.o
 .comment       0x00000000       0x12 obj_avr-zigduino/debug.o
 .comment       0x00000000       0x12 obj_avr-zigduino/looci.o
 .comment       0x00000000       0x12 obj_avr-zigduino/codebaseManager.o
 .comment       0x00000000       0x12 obj_avr-zigduino/componentManager.o
 .comment       0x00000000       0x12 obj_avr-zigduino/comp_services.o
 .comment       0x00000000       0x12 obj_avr-zigduino/event.o
 .comment       0x00000000       0x12 obj_avr-zigduino/eventBus.o
 .comment       0x00000000       0x12 obj_avr-zigduino/triggermodule.o
 .comment       0x00000000       0x12 obj_avr-zigduino/interceptor.o
 .comment       0x00000000       0x12 obj_avr-zigduino/vector.o
 .comment       0x00000000       0x12 obj_avr-zigduino/mmem.o
 .comment       0x00000000       0x12 obj_avr-zigduino/utils.o
 .comment       0x00000000       0x12 obj_avr-zigduino/hexCoding.o
 .comment       0x00000000       0x12 obj_avr-zigduino/timer_utils.o
 .comment       0x00000000       0x12 obj_avr-zigduino/keyList.o
 .comment       0x00000000       0x12 obj_avr-zigduino/networking.o
 .comment       0x00000000       0x12 obj_avr-zigduino/peers.o
 .comment       0x00000000       0x12 obj_avr-zigduino/smartmesh.o
 .comment       0x00000000       0x12 obj_avr-zigduino/runtime_control_local.o
 .comment       0x00000000       0x12 obj_avr-zigduino/introspection_local.o
 .comment       0x00000000       0x12 obj_avr-zigduino/reconfigurationEngine.o
 .comment       0x00000000       0x12 contiki-avr-zigduino.a(process.o)
 .comment       0x00000000       0x12 contiki-avr-zigduino.a(elfloader.o)
 .comment       0x00000000       0x12 contiki-avr-zigduino.a(memb.o)
 .comment       0x00000000       0x12 contiki-avr-zigduino.a(list.o)
 .comment       0x00000000       0x12 contiki-avr-zigduino.a(etimer.o)
 .comment       0x00000000       0x12 contiki-avr-zigduino.a(ctimer.o)
 .comment       0x00000000       0x12 contiki-avr-zigduino.a(random.o)
 .comment       0x00000000       0x12 contiki-avr-zigduino.a(dn_ipmt.o)
 .comment       0x00000000       0x12 contiki-avr-zigduino.a(dn_endianness.o)
 .comment       0x00000000       0x12 contiki-avr-zigduino.a(rs232.o)
 .comment       0x00000000       0x12 contiki-avr-zigduino.a(cfs-eeprom.o)
 .comment       0x00000000       0x12 contiki-avr-zigduino.a(eeprom.o)
 .comment       0x00000000       0x12 contiki-avr-zigduino.a(sensors.o)
 .comment       0x00000000       0x12 contiki-avr-zigduino.a(contiki-main.o)
 .comment       0x00000000       0x12 contiki-avr-zigduino.a(params.o)
 .comment       0x00000000       0x12 contiki-avr-zigduino.a(button-sensor.o)
 .comment       0x00000000       0x12 contiki-avr-zigduino.a(clock.o)
 .comment       0x00000000       0x12 contiki-avr-zigduino.a(watchdog.o)
 .comment       0x00000000       0x12 contiki-avr-zigduino.a(elfloader-avr.o)
 .comment       0x00000000       0x12 contiki-avr-zigduino.a(symtab-avr.o)
 .comment       0x00000000       0x12 contiki-avr-zigduino.a(rf230bb.o)
 .comment       0x00000000       0x12 contiki-avr-zigduino.a(halbb.o)
 .comment       0x00000000       0x12 contiki-avr-zigduino.a(rimeaddr.o)
 .comment       0x00000000       0x12 contiki-avr-zigduino.a(nullmac.o)
 .comment       0x00000000       0x12 contiki-avr-zigduino.a(sicslowmac.o)
 .comment       0x00000000       0x12 contiki-avr-zigduino.a(autostart.o)
 .comment       0x00000000       0x12 contiki-avr-zigduino.a(serial-line.o)
 .comment       0x00000000       0x12 contiki-avr-zigduino.a(timer.o)
 .comment       0x00000000       0x12 contiki-avr-zigduino.a(rtimer.o)
 .comment       0x00000000       0x12 contiki-avr-zigduino.a(ringbuf.o)
 .comment       0x00000000       0x12 contiki-avr-zigduino.a(packetbuf.o)
 .comment       0x00000000       0x12 contiki-avr-zigduino.a(queuebuf.o)
 .comment       0x00000000       0x12 contiki-avr-zigduino.a(sicslowpan.o)
 .comment       0x00000000       0x12 contiki-avr-zigduino.a(tcpip.o)
 .comment       0x00000000       0x12 contiki-avr-zigduino.a(uip-ds6-route.o)
 .comment       0x00000000       0x12 contiki-avr-zigduino.a(uip-ds6-nbr.o)
 .comment       0x00000000       0x12 contiki-avr-zigduino.a(uip-ds6.o)
 .comment       0x00000000       0x12 contiki-avr-zigduino.a(uip-nd6.o)
 .comment       0x00000000       0x12 contiki-avr-zigduino.a(uip-packetqueue)
 .comment       0x00000000       0x12 contiki-avr-zigduino.a(uip-split.o)
 .comment       0x00000000       0x12 contiki-avr-zigduino.a(uip6.o)
 .comment       0x00000000       0x12 contiki-avr-zigduino.a(dn_serial_mt.o)
 .comment       0x00000000       0x12 contiki-avr-zigduino.a(dn_hdlc.o)
 .comment       0x00000000       0x12 contiki-avr-zigduino.a(rtimer-arch.o)
 .comment       0x00000000       0x12 contiki-avr-zigduino.a(frame802154.o)
 .comment       0x00000000       0x12 contiki-avr-zigduino.a(framer-802154.o)
 .comment       0x00000000       0x12 contiki-avr-zigduino.a(stimer.o)
 .comment       0x00000000       0x12 contiki-avr-zigduino.a(nbr-table.o)
 .comment       0x00000000       0x12 contiki-avr-zigduino.a(uip-icmp6.o)
 .comment       0x00000000       0x12 /var/folders/kw/xp_j5cy50g5fm6r3w446d9rm0000gn/T//cckXVcIg.o
 .comment       0x00000000       0x12 /usr/local/CrossPack-AVR-20131216/lib/gcc/avr/4.8.1/../../../../avr/lib/avr51/libc.a(malloc.o)
 .comment       0x00000000       0x12 /usr/local/CrossPack-AVR-20131216/lib/gcc/avr/4.8.1/../../../../avr/lib/avr51/libc.a(rand.o)
 .comment       0x00000000       0x12 /usr/local/CrossPack-AVR-20131216/lib/gcc/avr/4.8.1/../../../../avr/lib/avr51/libc.a(iob.o)
 .comment       0x00000000       0x12 /usr/local/CrossPack-AVR-20131216/lib/gcc/avr/4.8.1/../../../../avr/lib/avr51/libc.a(printf.o)
 .comment       0x00000000       0x12 /usr/local/CrossPack-AVR-20131216/lib/gcc/avr/4.8.1/../../../../avr/lib/avr51/libc.a(printf_p.o)
 .comment       0x00000000       0x12 /usr/local/CrossPack-AVR-20131216/lib/gcc/avr/4.8.1/../../../../avr/lib/avr51/libc.a(puts.o)
 .comment       0x00000000       0x12 /usr/local/CrossPack-AVR-20131216/lib/gcc/avr/4.8.1/../../../../avr/lib/avr51/libc.a(vprintf.o)
 .comment       0x00000000       0x12 /usr/local/CrossPack-AVR-20131216/lib/gcc/avr/4.8.1/../../../../avr/lib/avr51/libc.a(vfprintf_std.o)
 .comment       0x00000000       0x12 /usr/local/CrossPack-AVR-20131216/lib/gcc/avr/4.8.1/../../../../avr/lib/avr51/libc.a(fputc.o)

.debug
 *(.debug)

.line
 *(.line)

.debug_srcinfo
 *(.debug_srcinfo)

.debug_sfnames
 *(.debug_sfnames)

.debug_aranges  0x00000000     0x1fd8
 *(.debug_aranges)
 .debug_aranges
                0x00000000       0x20 loociCore.co
 .debug_aranges
                0x00000020       0x38 obj_avr-zigduino/tempSensor.o
 .debug_aranges
                0x00000058       0x20 obj_avr-zigduino/image-init.o
 .debug_aranges
                0x00000078       0x28 obj_avr-zigduino/codebaseDeploymentSM.o
 .debug_aranges
                0x000000a0       0x50 obj_avr-zigduino/debug.o
 .debug_aranges
                0x000000f0       0x20 obj_avr-zigduino/looci.o
 .debug_aranges
                0x00000110       0x70 obj_avr-zigduino/codebaseManager.o
 .debug_aranges
                0x00000180      0x138 obj_avr-zigduino/componentManager.o
 .debug_aranges
                0x000002b8       0x30 obj_avr-zigduino/comp_services.o
 .debug_aranges
                0x000002e8       0x98 obj_avr-zigduino/event.o
 .debug_aranges
                0x00000380       0xe8 obj_avr-zigduino/eventBus.o
 .debug_aranges
                0x00000468       0x30 obj_avr-zigduino/triggermodule.o
 .debug_aranges
                0x00000498       0x40 obj_avr-zigduino/interceptor.o
 .debug_aranges
                0x000004d8       0x98 obj_avr-zigduino/vector.o
 .debug_aranges
                0x00000570       0x38 obj_avr-zigduino/mmem.o
 .debug_aranges
                0x000005a8       0x98 obj_avr-zigduino/utils.o
 .debug_aranges
                0x00000640       0x28 obj_avr-zigduino/hexCoding.o
 .debug_aranges
                0x00000668       0x30 obj_avr-zigduino/timer_utils.o
 .debug_aranges
                0x00000698       0x40 obj_avr-zigduino/keyList.o
 .debug_aranges
                0x000006d8       0x30 obj_avr-zigduino/networking.o
 .debug_aranges
                0x00000708       0x48 obj_avr-zigduino/peers.o
 .debug_aranges
                0x00000750      0x110 obj_avr-zigduino/smartmesh.o
 .debug_aranges
                0x00000860       0x20 obj_avr-zigduino/runtime_control_local.o
 .debug_aranges
                0x00000880       0x20 obj_avr-zigduino/introspection_local.o
 .debug_aranges
                0x000008a0      0x138 obj_avr-zigduino/reconfigurationEngine.o
 .debug_aranges
                0x000009d8       0x88 contiki-avr-zigduino.a(process.o)
 .debug_aranges
                0x00000a60       0x48 contiki-avr-zigduino.a(elfloader.o)
 .debug_aranges
                0x00000aa8       0x38 contiki-avr-zigduino.a(memb.o)
 .debug_aranges
                0x00000ae0       0x78 contiki-avr-zigduino.a(list.o)
 .debug_aranges
                0x00000b58       0x88 contiki-avr-zigduino.a(etimer.o)
 .debug_aranges
                0x00000be0       0x50 contiki-avr-zigduino.a(ctimer.o)
 .debug_aranges
                0x00000c30       0x28 contiki-avr-zigduino.a(random.o)
 .debug_aranges
                0x00000c58      0x2e0 contiki-avr-zigduino.a(dn_ipmt.o)
 .debug_aranges
                0x00000f38       0x38 contiki-avr-zigduino.a(dn_endianness.o)
 .debug_aranges
                0x00000f70       0x60 contiki-avr-zigduino.a(rs232.o)
 .debug_aranges
                0x00000fd0       0x60 contiki-avr-zigduino.a(cfs-eeprom.o)
 .debug_aranges
                0x00001030       0x28 contiki-avr-zigduino.a(eeprom.o)
 .debug_aranges
                0x00001058       0x40 contiki-avr-zigduino.a(sensors.o)
 .debug_aranges
                0x00001098       0x38 contiki-avr-zigduino.a(contiki-main.o)
 .debug_aranges
                0x000010d0       0x40 contiki-avr-zigduino.a(params.o)
 .debug_aranges
                0x00001110       0x30 contiki-avr-zigduino.a(button-sensor.o)
 .debug_aranges
                0x00001140       0x60 contiki-avr-zigduino.a(clock.o)
 .debug_aranges
                0x000011a0       0x40 contiki-avr-zigduino.a(watchdog.o)
 .debug_aranges
                0x000011e0       0x48 contiki-avr-zigduino.a(elfloader-avr.o)
 .debug_aranges
                0x00001228       0x20 contiki-avr-zigduino.a(symtab-avr.o)
 .debug_aranges
                0x00001248      0x110 contiki-avr-zigduino.a(rf230bb.o)
 .debug_aranges
                0x00001358       0x80 contiki-avr-zigduino.a(halbb.o)
 .debug_aranges
                0x000013d8       0x30 contiki-avr-zigduino.a(rimeaddr.o)
 .debug_aranges
                0x00001408       0x48 contiki-avr-zigduino.a(nullmac.o)
 .debug_aranges
                0x00001450       0x50 contiki-avr-zigduino.a(sicslowmac.o)
 .debug_aranges
                0x000014a0       0x28 contiki-avr-zigduino.a(autostart.o)
 .debug_aranges
                0x000014c8       0x30 contiki-avr-zigduino.a(serial-line.o)
 .debug_aranges
                0x000014f8       0x40 contiki-avr-zigduino.a(timer.o)
 .debug_aranges
                0x00001538       0x30 contiki-avr-zigduino.a(rtimer.o)
 .debug_aranges
                0x00001568       0x40 contiki-avr-zigduino.a(ringbuf.o)
 .debug_aranges
                0x000015a8       0xe0 contiki-avr-zigduino.a(packetbuf.o)
 .debug_aranges
                0x00001688       0x68 contiki-avr-zigduino.a(queuebuf.o)
 .debug_aranges
                0x000016f0       0x70 contiki-avr-zigduino.a(sicslowpan.o)
 .debug_aranges
                0x00001760       0xa8 contiki-avr-zigduino.a(tcpip.o)
 .debug_aranges
                0x00001808       0xb0 contiki-avr-zigduino.a(uip-ds6-route.o)
 .debug_aranges
                0x000018b8       0x80 contiki-avr-zigduino.a(uip-ds6-nbr.o)
 .debug_aranges
                0x00001938       0xd0 contiki-avr-zigduino.a(uip-ds6.o)
 .debug_aranges
                0x00001a08       0x48 contiki-avr-zigduino.a(uip-nd6.o)
 .debug_aranges
                0x00001a50       0x50 contiki-avr-zigduino.a(uip-packetqueue)
 .debug_aranges
                0x00001aa0       0x20 contiki-avr-zigduino.a(uip-split.o)
 .debug_aranges
                0x00001ac0       0xb8 contiki-avr-zigduino.a(uip6.o)
 .debug_aranges
                0x00001b78       0x40 contiki-avr-zigduino.a(dn_serial_mt.o)
 .debug_aranges
                0x00001bb8       0x60 contiki-avr-zigduino.a(dn_hdlc.o)
 .debug_aranges
                0x00001c18       0x40 contiki-avr-zigduino.a(rtimer-arch.o)
 .debug_aranges
                0x00001c58       0x38 contiki-avr-zigduino.a(frame802154.o)
 .debug_aranges
                0x00001c90       0x28 contiki-avr-zigduino.a(framer-802154.o)
 .debug_aranges
                0x00001cb8       0x48 contiki-avr-zigduino.a(stimer.o)
 .debug_aranges
                0x00001d00       0x90 contiki-avr-zigduino.a(nbr-table.o)
 .debug_aranges
                0x00001d90       0x30 contiki-avr-zigduino.a(uip-icmp6.o)
 .debug_aranges
                0x00001dc0       0x18 /var/folders/kw/xp_j5cy50g5fm6r3w446d9rm0000gn/T//cckXVcIg.o
 .debug_aranges
                0x00001dd8       0x20 /usr/local/CrossPack-AVR-20131216/lib/gcc/avr/4.8.1/avr51/libgcc.a(_udivmodqi4.o)
 .debug_aranges
                0x00001df8       0x20 /usr/local/CrossPack-AVR-20131216/lib/gcc/avr/4.8.1/avr51/libgcc.a(_udivmodhi4.o)
 .debug_aranges
                0x00001e18       0x20 /usr/local/CrossPack-AVR-20131216/lib/gcc/avr/4.8.1/avr51/libgcc.a(_divmodhi4.o)
 .debug_aranges
                0x00001e38       0x20 /usr/local/CrossPack-AVR-20131216/lib/gcc/avr/4.8.1/avr51/libgcc.a(_udivmodsi4.o)
 .debug_aranges
                0x00001e58       0x20 /usr/local/CrossPack-AVR-20131216/lib/gcc/avr/4.8.1/avr51/libgcc.a(_divmodsi4.o)
 .debug_aranges
                0x00001e78       0x20 /usr/local/CrossPack-AVR-20131216/lib/gcc/avr/4.8.1/avr51/libgcc.a(_negsi2.o)
 .debug_aranges
                0x00001e98       0x20 /usr/local/CrossPack-AVR-20131216/lib/gcc/avr/4.8.1/avr51/libgcc.a(_exit.o)
 .debug_aranges
                0x00001eb8       0x20 /usr/local/CrossPack-AVR-20131216/lib/gcc/avr/4.8.1/avr51/libgcc.a(_tablejump.o)
 .debug_aranges
                0x00001ed8       0x20 /usr/local/CrossPack-AVR-20131216/lib/gcc/avr/4.8.1/avr51/libgcc.a(_copy_data.o)
 .debug_aranges
                0x00001ef8       0x20 /usr/local/CrossPack-AVR-20131216/lib/gcc/avr/4.8.1/avr51/libgcc.a(_clear_bss.o)
 .debug_aranges
                0x00001f18       0x20 /usr/local/CrossPack-AVR-20131216/lib/gcc/avr/4.8.1/avr51/libgcc.a(_bswapsi2.o)
 .debug_aranges
                0x00001f38       0x20 /usr/local/CrossPack-AVR-20131216/lib/gcc/avr/4.8.1/avr51/libgcc.a(_muluhisi3.o)
 .debug_aranges
                0x00001f58       0x20 /usr/local/CrossPack-AVR-20131216/lib/gcc/avr/4.8.1/avr51/libgcc.a(_mulshisi3.o)
 .debug_aranges
                0x00001f78       0x20 /usr/local/CrossPack-AVR-20131216/lib/gcc/avr/4.8.1/avr51/libgcc.a(_prologue.o)
 .debug_aranges
                0x00001f98       0x20 /usr/local/CrossPack-AVR-20131216/lib/gcc/avr/4.8.1/avr51/libgcc.a(_epilogue.o)
 .debug_aranges
                0x00001fb8       0x20 /usr/local/CrossPack-AVR-20131216/lib/gcc/avr/4.8.1/avr51/libgcc.a(_umulhisi3.o)

.debug_pubnames
 *(.debug_pubnames)

.debug_info     0x00000000    0x2de99
 *(.debug_info)
 .debug_info    0x00000000      0x5dc loociCore.co
 .debug_info    0x000005dc      0x769 obj_avr-zigduino/tempSensor.o
 .debug_info    0x00000d45      0x355 obj_avr-zigduino/image-init.o
 .debug_info    0x0000109a      0xb12 obj_avr-zigduino/codebaseDeploymentSM.o
 .debug_info    0x00001bac      0x50c obj_avr-zigduino/debug.o
 .debug_info    0x000020b8      0x298 obj_avr-zigduino/looci.o
 .debug_info    0x00002350      0xa73 obj_avr-zigduino/codebaseManager.o
 .debug_info    0x00002dc3     0x1fef obj_avr-zigduino/componentManager.o
 .debug_info    0x00004db2      0x241 obj_avr-zigduino/comp_services.o
 .debug_info    0x00004ff3      0xadb obj_avr-zigduino/event.o
 .debug_info    0x00005ace     0x1a25 obj_avr-zigduino/eventBus.o
 .debug_info    0x000074f3      0x51e obj_avr-zigduino/triggermodule.o
 .debug_info    0x00007a11      0x3d1 obj_avr-zigduino/interceptor.o
 .debug_info    0x00007de2      0xb02 obj_avr-zigduino/vector.o
 .debug_info    0x000088e4      0x2ac obj_avr-zigduino/mmem.o
 .debug_info    0x00008b90      0x83e obj_avr-zigduino/utils.o
 .debug_info    0x000093ce      0x2b5 obj_avr-zigduino/hexCoding.o
 .debug_info    0x00009683      0x369 obj_avr-zigduino/timer_utils.o
 .debug_info    0x000099ec      0x266 obj_avr-zigduino/keyList.o
 .debug_info    0x00009c52      0x9cc obj_avr-zigduino/networking.o
 .debug_info    0x0000a61e      0x60a obj_avr-zigduino/peers.o
 .debug_info    0x0000ac28     0x1b1a obj_avr-zigduino/smartmesh.o
 .debug_info    0x0000c742      0x1c2 obj_avr-zigduino/runtime_control_local.o
 .debug_info    0x0000c904      0x1c2 obj_avr-zigduino/introspection_local.o
 .debug_info    0x0000cac6     0x22dd obj_avr-zigduino/reconfigurationEngine.o
 .debug_info    0x0000eda3      0x74a contiki-avr-zigduino.a(process.o)
 .debug_info    0x0000f4ed     0x173a contiki-avr-zigduino.a(elfloader.o)
 .debug_info    0x00010c27      0x210 contiki-avr-zigduino.a(memb.o)
 .debug_info    0x00010e37      0x3d9 contiki-avr-zigduino.a(list.o)
 .debug_info    0x00011210      0x6ce contiki-avr-zigduino.a(etimer.o)
 .debug_info    0x000118de      0x7a5 contiki-avr-zigduino.a(ctimer.o)
 .debug_info    0x00012083       0xf5 contiki-avr-zigduino.a(random.o)
 .debug_info    0x00012178     0x5aef contiki-avr-zigduino.a(dn_ipmt.o)
 .debug_info    0x00017c67      0x188 contiki-avr-zigduino.a(dn_endianness.o)
 .debug_info    0x00017def      0x449 contiki-avr-zigduino.a(rs232.o)
 .debug_info    0x00018238      0x3e1 contiki-avr-zigduino.a(cfs-eeprom.o)
 .debug_info    0x00018619      0x19d contiki-avr-zigduino.a(eeprom.o)
 .debug_info    0x000187b6      0x49a contiki-avr-zigduino.a(sensors.o)
 .debug_info    0x00018c50      0xdde contiki-avr-zigduino.a(contiki-main.o)
 .debug_info    0x00019a2e      0x5e4 contiki-avr-zigduino.a(params.o)
 .debug_info    0x0001a012      0x1eb contiki-avr-zigduino.a(button-sensor.o)
 .debug_info    0x0001a1fd      0x32b contiki-avr-zigduino.a(clock.o)
 .debug_info    0x0001a528       0xe2 contiki-avr-zigduino.a(watchdog.o)
 .debug_info    0x0001a60a      0x5eb contiki-avr-zigduino.a(elfloader-avr.o)
 .debug_info    0x0001abf5      0x1a9 contiki-avr-zigduino.a(symtab-avr.o)
 .debug_info    0x0001ad9e     0x1656 contiki-avr-zigduino.a(rf230bb.o)
 .debug_info    0x0001c3f4      0x3d2 contiki-avr-zigduino.a(halbb.o)
 .debug_info    0x0001c7c6      0x1fb contiki-avr-zigduino.a(rimeaddr.o)
 .debug_info    0x0001c9c1      0x3b8 contiki-avr-zigduino.a(nullmac.o)
 .debug_info    0x0001cd79      0xc3f contiki-avr-zigduino.a(sicslowmac.o)
 .debug_info    0x0001d9b8      0x1f4 contiki-avr-zigduino.a(autostart.o)
 .debug_info    0x0001dbac      0x4cd contiki-avr-zigduino.a(serial-line.o)
 .debug_info    0x0001e079      0x1c3 contiki-avr-zigduino.a(timer.o)
 .debug_info    0x0001e23c      0x20c contiki-avr-zigduino.a(rtimer.o)
 .debug_info    0x0001e448      0x1d5 contiki-avr-zigduino.a(ringbuf.o)
 .debug_info    0x0001e61d      0x861 contiki-avr-zigduino.a(packetbuf.o)
 .debug_info    0x0001ee7e      0xad2 contiki-avr-zigduino.a(queuebuf.o)
 .debug_info    0x0001f950     0x1696 contiki-avr-zigduino.a(sicslowpan.o)
 .debug_info    0x00020fe6     0x1ab4 contiki-avr-zigduino.a(tcpip.o)
 .debug_info    0x00022a9a     0x1619 contiki-avr-zigduino.a(uip-ds6-route.o)
 .debug_info    0x000240b3      0xfd2 contiki-avr-zigduino.a(uip-ds6-nbr.o)
 .debug_info    0x00025085     0x10de contiki-avr-zigduino.a(uip-ds6.o)
 .debug_info    0x00026163     0x1238 contiki-avr-zigduino.a(uip-nd6.o)
 .debug_info    0x0002739b      0x5a4 contiki-avr-zigduino.a(uip-packetqueue)
 .debug_info    0x0002793f      0x3a5 contiki-avr-zigduino.a(uip-split.o)
 .debug_info    0x00027ce4     0x15df contiki-avr-zigduino.a(uip6.o)
 .debug_info    0x000292c3      0x5e2 contiki-avr-zigduino.a(dn_serial_mt.o)
 .debug_info    0x000298a5      0x43b contiki-avr-zigduino.a(dn_hdlc.o)
 .debug_info    0x00029ce0      0x1f3 contiki-avr-zigduino.a(rtimer-arch.o)
 .debug_info    0x00029ed3      0x573 contiki-avr-zigduino.a(frame802154.o)
 .debug_info    0x0002a446      0x836 contiki-avr-zigduino.a(framer-802154.o)
 .debug_info    0x0002ac7c      0x1e1 contiki-avr-zigduino.a(stimer.o)
 .debug_info    0x0002ae5d      0xf23 contiki-avr-zigduino.a(nbr-table.o)
 .debug_info    0x0002bd80      0x62a contiki-avr-zigduino.a(uip-icmp6.o)
 .debug_info    0x0002c3aa      0xeff /var/folders/kw/xp_j5cy50g5fm6r3w446d9rm0000gn/T//cckXVcIg.o
 .debug_info    0x0002d2a9       0xbf /usr/local/CrossPack-AVR-20131216/lib/gcc/avr/4.8.1/avr51/libgcc.a(_udivmodqi4.o)
 .debug_info    0x0002d368       0xbf /usr/local/CrossPack-AVR-20131216/lib/gcc/avr/4.8.1/avr51/libgcc.a(_udivmodhi4.o)
 .debug_info    0x0002d427       0xbf /usr/local/CrossPack-AVR-20131216/lib/gcc/avr/4.8.1/avr51/libgcc.a(_divmodhi4.o)
 .debug_info    0x0002d4e6       0xbf /usr/local/CrossPack-AVR-20131216/lib/gcc/avr/4.8.1/avr51/libgcc.a(_udivmodsi4.o)
 .debug_info    0x0002d5a5       0xbf /usr/local/CrossPack-AVR-20131216/lib/gcc/avr/4.8.1/avr51/libgcc.a(_divmodsi4.o)
 .debug_info    0x0002d664       0xbf /usr/local/CrossPack-AVR-20131216/lib/gcc/avr/4.8.1/avr51/libgcc.a(_negsi2.o)
 .debug_info    0x0002d723       0xbf /usr/local/CrossPack-AVR-20131216/lib/gcc/avr/4.8.1/avr51/libgcc.a(_exit.o)
 .debug_info    0x0002d7e2       0xbf /usr/local/CrossPack-AVR-20131216/lib/gcc/avr/4.8.1/avr51/libgcc.a(_tablejump.o)
 .debug_info    0x0002d8a1       0xbf /usr/local/CrossPack-AVR-20131216/lib/gcc/avr/4.8.1/avr51/libgcc.a(_copy_data.o)
 .debug_info    0x0002d960       0xbf /usr/local/CrossPack-AVR-20131216/lib/gcc/avr/4.8.1/avr51/libgcc.a(_clear_bss.o)
 .debug_info    0x0002da1f       0xbf /usr/local/CrossPack-AVR-20131216/lib/gcc/avr/4.8.1/avr51/libgcc.a(_bswapsi2.o)
 .debug_info    0x0002dade       0xbf /usr/local/CrossPack-AVR-20131216/lib/gcc/avr/4.8.1/avr51/libgcc.a(_muluhisi3.o)
 .debug_info    0x0002db9d       0xbf /usr/local/CrossPack-AVR-20131216/lib/gcc/avr/4.8.1/avr51/libgcc.a(_mulshisi3.o)
 .debug_info    0x0002dc5c       0xbf /usr/local/CrossPack-AVR-20131216/lib/gcc/avr/4.8.1/avr51/libgcc.a(_prologue.o)
 .debug_info    0x0002dd1b       0xbf /usr/local/CrossPack-AVR-20131216/lib/gcc/avr/4.8.1/avr51/libgcc.a(_epilogue.o)
 .debug_info    0x0002ddda       0xbf /usr/local/CrossPack-AVR-20131216/lib/gcc/avr/4.8.1/avr51/libgcc.a(_umulhisi3.o)
 *(.gnu.linkonce.wi.*)

.debug_abbrev   0x00000000     0xa485
 *(.debug_abbrev)
 .debug_abbrev  0x00000000      0x217 loociCore.co
 .debug_abbrev  0x00000217      0x1e2 obj_avr-zigduino/tempSensor.o
 .debug_abbrev  0x000003f9      0x122 obj_avr-zigduino/image-init.o
 .debug_abbrev  0x0000051b      0x30b obj_avr-zigduino/codebaseDeploymentSM.o
 .debug_abbrev  0x00000826      0x173 obj_avr-zigduino/debug.o
 .debug_abbrev  0x00000999      0x143 obj_avr-zigduino/looci.o
 .debug_abbrev  0x00000adc      0x265 obj_avr-zigduino/codebaseManager.o
 .debug_abbrev  0x00000d41      0x4e7 obj_avr-zigduino/componentManager.o
 .debug_abbrev  0x00001228      0x14a obj_avr-zigduino/comp_services.o
 .debug_abbrev  0x00001372      0x19d obj_avr-zigduino/event.o
 .debug_abbrev  0x0000150f      0x439 obj_avr-zigduino/eventBus.o
 .debug_abbrev  0x00001948      0x1ae obj_avr-zigduino/triggermodule.o
 .debug_abbrev  0x00001af6      0x17d obj_avr-zigduino/interceptor.o
 .debug_abbrev  0x00001c73      0x3a9 obj_avr-zigduino/vector.o
 .debug_abbrev  0x0000201c      0x1ba obj_avr-zigduino/mmem.o
 .debug_abbrev  0x000021d6      0x1f0 obj_avr-zigduino/utils.o
 .debug_abbrev  0x000023c6      0x143 obj_avr-zigduino/hexCoding.o
 .debug_abbrev  0x00002509      0x1af obj_avr-zigduino/timer_utils.o
 .debug_abbrev  0x000026b8      0x10f obj_avr-zigduino/keyList.o
 .debug_abbrev  0x000027c7      0x297 obj_avr-zigduino/networking.o
 .debug_abbrev  0x00002a5e      0x1c9 obj_avr-zigduino/peers.o
 .debug_abbrev  0x00002c27      0x43b obj_avr-zigduino/smartmesh.o
 .debug_abbrev  0x00003062      0x115 obj_avr-zigduino/runtime_control_local.o
 .debug_abbrev  0x00003177      0x115 obj_avr-zigduino/introspection_local.o
 .debug_abbrev  0x0000328c      0x31f obj_avr-zigduino/reconfigurationEngine.o
 .debug_abbrev  0x000035ab      0x372 contiki-avr-zigduino.a(process.o)
 .debug_abbrev  0x0000391d      0x37c contiki-avr-zigduino.a(elfloader.o)
 .debug_abbrev  0x00003c99      0x119 contiki-avr-zigduino.a(memb.o)
 .debug_abbrev  0x00003db2      0x196 contiki-avr-zigduino.a(list.o)
 .debug_abbrev  0x00003f48      0x320 contiki-avr-zigduino.a(etimer.o)
 .debug_abbrev  0x00004268      0x231 contiki-avr-zigduino.a(ctimer.o)
 .debug_abbrev  0x00004499       0xc0 contiki-avr-zigduino.a(random.o)
 .debug_abbrev  0x00004559      0x340 contiki-avr-zigduino.a(dn_ipmt.o)
 .debug_abbrev  0x00004899       0xb0 contiki-avr-zigduino.a(dn_endianness.o)
 .debug_abbrev  0x00004949      0x235 contiki-avr-zigduino.a(rs232.o)
 .debug_abbrev  0x00004b7e      0x155 contiki-avr-zigduino.a(cfs-eeprom.o)
 .debug_abbrev  0x00004cd3       0xc6 contiki-avr-zigduino.a(eeprom.o)
 .debug_abbrev  0x00004d99      0x2a7 contiki-avr-zigduino.a(sensors.o)
 .debug_abbrev  0x00005040      0x384 contiki-avr-zigduino.a(contiki-main.o)
 .debug_abbrev  0x000053c4      0x17a contiki-avr-zigduino.a(params.o)
 .debug_abbrev  0x0000553e       0xc7 contiki-avr-zigduino.a(button-sensor.o)
 .debug_abbrev  0x00005605      0x21a contiki-avr-zigduino.a(clock.o)
 .debug_abbrev  0x0000581f       0x4f contiki-avr-zigduino.a(watchdog.o)
 .debug_abbrev  0x0000586e      0x264 contiki-avr-zigduino.a(elfloader-avr.o)
 .debug_abbrev  0x00005ad2      0x11f contiki-avr-zigduino.a(symtab-avr.o)
 .debug_abbrev  0x00005bf1      0x4a2 contiki-avr-zigduino.a(rf230bb.o)
 .debug_abbrev  0x00006093      0x196 contiki-avr-zigduino.a(halbb.o)
 .debug_abbrev  0x00006229      0x130 contiki-avr-zigduino.a(rimeaddr.o)
 .debug_abbrev  0x00006359      0x16f contiki-avr-zigduino.a(nullmac.o)
 .debug_abbrev  0x000064c8      0x349 contiki-avr-zigduino.a(sicslowmac.o)
 .debug_abbrev  0x00006811      0x129 contiki-avr-zigduino.a(autostart.o)
 .debug_abbrev  0x0000693a      0x24d contiki-avr-zigduino.a(serial-line.o)
 .debug_abbrev  0x00006b87       0xfb contiki-avr-zigduino.a(timer.o)
 .debug_abbrev  0x00006c82      0x17b contiki-avr-zigduino.a(rtimer.o)
 .debug_abbrev  0x00006dfd       0xfb contiki-avr-zigduino.a(ringbuf.o)
 .debug_abbrev  0x00006ef8      0x312 contiki-avr-zigduino.a(packetbuf.o)
 .debug_abbrev  0x0000720a      0x2e2 contiki-avr-zigduino.a(queuebuf.o)
 .debug_abbrev  0x000074ec      0x480 contiki-avr-zigduino.a(sicslowpan.o)
 .debug_abbrev  0x0000796c      0x53b contiki-avr-zigduino.a(tcpip.o)
 .debug_abbrev  0x00007ea7      0x39d contiki-avr-zigduino.a(uip-ds6-route.o)
 .debug_abbrev  0x00008244      0x33c contiki-avr-zigduino.a(uip-ds6-nbr.o)
 .debug_abbrev  0x00008580      0x321 contiki-avr-zigduino.a(uip-ds6.o)
 .debug_abbrev  0x000088a1      0x303 contiki-avr-zigduino.a(uip-nd6.o)
 .debug_abbrev  0x00008ba4      0x246 contiki-avr-zigduino.a(uip-packetqueue)
 .debug_abbrev  0x00008dea      0x186 contiki-avr-zigduino.a(uip-split.o)
 .debug_abbrev  0x00008f70      0x3f4 contiki-avr-zigduino.a(uip6.o)
 .debug_abbrev  0x00009364      0x221 contiki-avr-zigduino.a(dn_serial_mt.o)
 .debug_abbrev  0x00009585      0x1eb contiki-avr-zigduino.a(dn_hdlc.o)
 .debug_abbrev  0x00009770       0xf5 contiki-avr-zigduino.a(rtimer-arch.o)
 .debug_abbrev  0x00009865      0x1d5 contiki-avr-zigduino.a(frame802154.o)
 .debug_abbrev  0x00009a3a      0x253 contiki-avr-zigduino.a(framer-802154.o)
 .debug_abbrev  0x00009c8d       0xd4 contiki-avr-zigduino.a(stimer.o)
 .debug_abbrev  0x00009d61      0x36d contiki-avr-zigduino.a(nbr-table.o)
 .debug_abbrev  0x0000a0ce      0x1e4 contiki-avr-zigduino.a(uip-icmp6.o)
 .debug_abbrev  0x0000a2b2       0x93 /var/folders/kw/xp_j5cy50g5fm6r3w446d9rm0000gn/T//cckXVcIg.o
 .debug_abbrev  0x0000a345       0x14 /usr/local/CrossPack-AVR-20131216/lib/gcc/avr/4.8.1/avr51/libgcc.a(_udivmodqi4.o)
 .debug_abbrev  0x0000a359       0x14 /usr/local/CrossPack-AVR-20131216/lib/gcc/avr/4.8.1/avr51/libgcc.a(_udivmodhi4.o)
 .debug_abbrev  0x0000a36d       0x14 /usr/local/CrossPack-AVR-20131216/lib/gcc/avr/4.8.1/avr51/libgcc.a(_divmodhi4.o)
 .debug_abbrev  0x0000a381       0x14 /usr/local/CrossPack-AVR-20131216/lib/gcc/avr/4.8.1/avr51/libgcc.a(_udivmodsi4.o)
 .debug_abbrev  0x0000a395       0x14 /usr/local/CrossPack-AVR-20131216/lib/gcc/avr/4.8.1/avr51/libgcc.a(_divmodsi4.o)
 .debug_abbrev  0x0000a3a9       0x14 /usr/local/CrossPack-AVR-20131216/lib/gcc/avr/4.8.1/avr51/libgcc.a(_negsi2.o)
 .debug_abbrev  0x0000a3bd       0x14 /usr/local/CrossPack-AVR-20131216/lib/gcc/avr/4.8.1/avr51/libgcc.a(_exit.o)
 .debug_abbrev  0x0000a3d1       0x14 /usr/local/CrossPack-AVR-20131216/lib/gcc/avr/4.8.1/avr51/libgcc.a(_tablejump.o)
 .debug_abbrev  0x0000a3e5       0x14 /usr/local/CrossPack-AVR-20131216/lib/gcc/avr/4.8.1/avr51/libgcc.a(_copy_data.o)
 .debug_abbrev  0x0000a3f9       0x14 /usr/local/CrossPack-AVR-20131216/lib/gcc/avr/4.8.1/avr51/libgcc.a(_clear_bss.o)
 .debug_abbrev  0x0000a40d       0x14 /usr/local/CrossPack-AVR-20131216/lib/gcc/avr/4.8.1/avr51/libgcc.a(_bswapsi2.o)
 .debug_abbrev  0x0000a421       0x14 /usr/local/CrossPack-AVR-20131216/lib/gcc/avr/4.8.1/avr51/libgcc.a(_muluhisi3.o)
 .debug_abbrev  0x0000a435       0x14 /usr/local/CrossPack-AVR-20131216/lib/gcc/avr/4.8.1/avr51/libgcc.a(_mulshisi3.o)
 .debug_abbrev  0x0000a449       0x14 /usr/local/CrossPack-AVR-20131216/lib/gcc/avr/4.8.1/avr51/libgcc.a(_prologue.o)
 .debug_abbrev  0x0000a45d       0x14 /usr/local/CrossPack-AVR-20131216/lib/gcc/avr/4.8.1/avr51/libgcc.a(_epilogue.o)
 .debug_abbrev  0x0000a471       0x14 /usr/local/CrossPack-AVR-20131216/lib/gcc/avr/4.8.1/avr51/libgcc.a(_umulhisi3.o)

.debug_line     0x00000000     0xc15b
 *(.debug_line)
 .debug_line    0x00000000      0x25c loociCore.co
 .debug_line    0x0000025c      0x24f obj_avr-zigduino/tempSensor.o
 .debug_line    0x000004ab      0x1d0 obj_avr-zigduino/image-init.o
 .debug_line    0x0000067b      0x33e obj_avr-zigduino/codebaseDeploymentSM.o
 .debug_line    0x000009b9      0x1e6 obj_avr-zigduino/debug.o
 .debug_line    0x00000b9f      0x1d2 obj_avr-zigduino/looci.o
 .debug_line    0x00000d71      0x39b obj_avr-zigduino/codebaseManager.o
 .debug_line    0x0000110c      0x5e1 obj_avr-zigduino/componentManager.o
 .debug_line    0x000016ed      0x11a obj_avr-zigduino/comp_services.o
 .debug_line    0x00001807      0x27e obj_avr-zigduino/event.o
 .debug_line    0x00001a85      0x52f obj_avr-zigduino/eventBus.o
 .debug_line    0x00001fb4      0x15f obj_avr-zigduino/triggermodule.o
 .debug_line    0x00002113      0x131 obj_avr-zigduino/interceptor.o
 .debug_line    0x00002244      0x29b obj_avr-zigduino/vector.o
 .debug_line    0x000024df      0x15a obj_avr-zigduino/mmem.o
 .debug_line    0x00002639      0x2d9 obj_avr-zigduino/utils.o
 .debug_line    0x00002912      0x14b obj_avr-zigduino/hexCoding.o
 .debug_line    0x00002a5d      0x1c7 obj_avr-zigduino/timer_utils.o
 .debug_line    0x00002c24      0x116 obj_avr-zigduino/keyList.o
 .debug_line    0x00002d3a      0x318 obj_avr-zigduino/networking.o
 .debug_line    0x00003052      0x1dc obj_avr-zigduino/peers.o
 .debug_line    0x0000322e      0x525 obj_avr-zigduino/smartmesh.o
 .debug_line    0x00003753      0x122 obj_avr-zigduino/runtime_control_local.o
 .debug_line    0x00003875      0x120 obj_avr-zigduino/introspection_local.o
 .debug_line    0x00003995      0x623 obj_avr-zigduino/reconfigurationEngine.o
 .debug_line    0x00003fb8      0x208 contiki-avr-zigduino.a(process.o)
 .debug_line    0x000041c0      0x399 contiki-avr-zigduino.a(elfloader.o)
 .debug_line    0x00004559       0xde contiki-avr-zigduino.a(memb.o)
 .debug_line    0x00004637      0x17f contiki-avr-zigduino.a(list.o)
 .debug_line    0x000047b6      0x25a contiki-avr-zigduino.a(etimer.o)
 .debug_line    0x00004a10      0x204 contiki-avr-zigduino.a(ctimer.o)
 .debug_line    0x00004c14       0xb6 contiki-avr-zigduino.a(random.o)
 .debug_line    0x00004cca      0xcee contiki-avr-zigduino.a(dn_ipmt.o)
 .debug_line    0x000059b8       0xe9 contiki-avr-zigduino.a(dn_endianness.o)
 .debug_line    0x00005aa1      0x183 contiki-avr-zigduino.a(rs232.o)
 .debug_line    0x00005c24      0x160 contiki-avr-zigduino.a(cfs-eeprom.o)
 .debug_line    0x00005d84      0x189 contiki-avr-zigduino.a(eeprom.o)
 .debug_line    0x00005f0d      0x1ec contiki-avr-zigduino.a(sensors.o)
 .debug_line    0x000060f9      0x56f contiki-avr-zigduino.a(contiki-main.o)
 .debug_line    0x00006668      0x1b5 contiki-avr-zigduino.a(params.o)
 .debug_line    0x0000681d       0xe9 contiki-avr-zigduino.a(button-sensor.o)
 .debug_line    0x00006906      0x214 contiki-avr-zigduino.a(clock.o)
 .debug_line    0x00006b1a       0xef contiki-avr-zigduino.a(watchdog.o)
 .debug_line    0x00006c09      0x1cf contiki-avr-zigduino.a(elfloader-avr.o)
 .debug_line    0x00006dd8       0xef contiki-avr-zigduino.a(symtab-avr.o)
 .debug_line    0x00006ec7      0x5de contiki-avr-zigduino.a(rf230bb.o)
 .debug_line    0x000074a5      0x1b8 contiki-avr-zigduino.a(halbb.o)
 .debug_line    0x0000765d      0x125 contiki-avr-zigduino.a(rimeaddr.o)
 .debug_line    0x00007782      0x119 contiki-avr-zigduino.a(nullmac.o)
 .debug_line    0x0000789b      0x2ad contiki-avr-zigduino.a(sicslowmac.o)
 .debug_line    0x00007b48       0xb6 contiki-avr-zigduino.a(autostart.o)
 .debug_line    0x00007bfe      0x18e contiki-avr-zigduino.a(serial-line.o)
 .debug_line    0x00007d8c      0x11f contiki-avr-zigduino.a(timer.o)
 .debug_line    0x00007eab       0xa4 contiki-avr-zigduino.a(rtimer.o)
 .debug_line    0x00007f4f      0x109 contiki-avr-zigduino.a(ringbuf.o)
 .debug_line    0x00008058      0x2ea contiki-avr-zigduino.a(packetbuf.o)
 .debug_line    0x00008342      0x20b contiki-avr-zigduino.a(queuebuf.o)
 .debug_line    0x0000854d      0x5e1 contiki-avr-zigduino.a(sicslowpan.o)
 .debug_line    0x00008b2e      0x47d contiki-avr-zigduino.a(tcpip.o)
 .debug_line    0x00008fab      0x4be contiki-avr-zigduino.a(uip-ds6-route.o)
 .debug_line    0x00009469      0x3d6 contiki-avr-zigduino.a(uip-ds6-nbr.o)
 .debug_line    0x0000983f      0x4f6 contiki-avr-zigduino.a(uip-ds6.o)
 .debug_line    0x00009d35      0x450 contiki-avr-zigduino.a(uip-nd6.o)
 .debug_line    0x0000a185      0x258 contiki-avr-zigduino.a(uip-packetqueue)
 .debug_line    0x0000a3dd       0xf3 contiki-avr-zigduino.a(uip-split.o)
 .debug_line    0x0000a4d0      0x6ff contiki-avr-zigduino.a(uip6.o)
 .debug_line    0x0000abcf      0x17a contiki-avr-zigduino.a(dn_serial_mt.o)
 .debug_line    0x0000ad49      0x181 contiki-avr-zigduino.a(dn_hdlc.o)
 .debug_line    0x0000aeca      0x204 contiki-avr-zigduino.a(rtimer-arch.o)
 .debug_line    0x0000b0ce      0x204 contiki-avr-zigduino.a(frame802154.o)
 .debug_line    0x0000b2d2      0x1f7 contiki-avr-zigduino.a(framer-802154.o)
 .debug_line    0x0000b4c9       0xe1 contiki-avr-zigduino.a(stimer.o)
 .debug_line    0x0000b5aa      0x2f5 contiki-avr-zigduino.a(nbr-table.o)
 .debug_line    0x0000b89f      0x1f2 contiki-avr-zigduino.a(uip-icmp6.o)
 .debug_line    0x0000ba91       0x85 /var/folders/kw/xp_j5cy50g5fm6r3w446d9rm0000gn/T//cckXVcIg.o
 .debug_line    0x0000bb16       0x62 /usr/local/CrossPack-AVR-20131216/lib/gcc/avr/4.8.1/avr51/libgcc.a(_udivmodqi4.o)
 .debug_line    0x0000bb78       0x6a /usr/local/CrossPack-AVR-20131216/lib/gcc/avr/4.8.1/avr51/libgcc.a(_udivmodhi4.o)
 .debug_line    0x0000bbe2       0x69 /usr/local/CrossPack-AVR-20131216/lib/gcc/avr/4.8.1/avr51/libgcc.a(_divmodhi4.o)
 .debug_line    0x0000bc4b       0x78 /usr/local/CrossPack-AVR-20131216/lib/gcc/avr/4.8.1/avr51/libgcc.a(_udivmodsi4.o)
 .debug_line    0x0000bcc3       0x6a /usr/local/CrossPack-AVR-20131216/lib/gcc/avr/4.8.1/avr51/libgcc.a(_divmodsi4.o)
 .debug_line    0x0000bd2d       0x58 /usr/local/CrossPack-AVR-20131216/lib/gcc/avr/4.8.1/avr51/libgcc.a(_negsi2.o)
 .debug_line    0x0000bd85       0x58 /usr/local/CrossPack-AVR-20131216/lib/gcc/avr/4.8.1/avr51/libgcc.a(_exit.o)
 .debug_line    0x0000bddd       0x5c /usr/local/CrossPack-AVR-20131216/lib/gcc/avr/4.8.1/avr51/libgcc.a(_tablejump.o)
 .debug_line    0x0000be39       0x63 /usr/local/CrossPack-AVR-20131216/lib/gcc/avr/4.8.1/avr51/libgcc.a(_copy_data.o)
 .debug_line    0x0000be9c       0x5e /usr/local/CrossPack-AVR-20131216/lib/gcc/avr/4.8.1/avr51/libgcc.a(_clear_bss.o)
 .debug_line    0x0000befa       0x59 /usr/local/CrossPack-AVR-20131216/lib/gcc/avr/4.8.1/avr51/libgcc.a(_bswapsi2.o)
 .debug_line    0x0000bf53       0x60 /usr/local/CrossPack-AVR-20131216/lib/gcc/avr/4.8.1/avr51/libgcc.a(_muluhisi3.o)
 .debug_line    0x0000bfb3       0x5c /usr/local/CrossPack-AVR-20131216/lib/gcc/avr/4.8.1/avr51/libgcc.a(_mulshisi3.o)
 .debug_line    0x0000c00f       0x74 /usr/local/CrossPack-AVR-20131216/lib/gcc/avr/4.8.1/avr51/libgcc.a(_prologue.o)
 .debug_line    0x0000c083       0x73 /usr/local/CrossPack-AVR-20131216/lib/gcc/avr/4.8.1/avr51/libgcc.a(_epilogue.o)
 .debug_line    0x0000c0f6       0x65 /usr/local/CrossPack-AVR-20131216/lib/gcc/avr/4.8.1/avr51/libgcc.a(_umulhisi3.o)

.debug_frame    0x00000000     0x4ff8
 *(.debug_frame)
 .debug_frame   0x00000000       0x48 loociCore.co
 .debug_frame   0x00000048       0x74 obj_avr-zigduino/tempSensor.o
 .debug_frame   0x000000bc       0x30 obj_avr-zigduino/image-init.o
 .debug_frame   0x000000ec       0x88 obj_avr-zigduino/codebaseDeploymentSM.o
 .debug_frame   0x00000174      0x1a0 obj_avr-zigduino/debug.o
 .debug_frame   0x00000314       0x24 obj_avr-zigduino/looci.o
 .debug_frame   0x00000338      0x144 obj_avr-zigduino/codebaseManager.o
 .debug_frame   0x0000047c      0x45c obj_avr-zigduino/componentManager.o
 .debug_frame   0x000008d8       0x6c obj_avr-zigduino/comp_services.o
 .debug_frame   0x00000944      0x1f0 obj_avr-zigduino/event.o
 .debug_frame   0x00000b34      0x2a0 obj_avr-zigduino/eventBus.o
 .debug_frame   0x00000dd4       0x60 obj_avr-zigduino/triggermodule.o
 .debug_frame   0x00000e34       0xb0 obj_avr-zigduino/interceptor.o
 .debug_frame   0x00000ee4      0x1d4 obj_avr-zigduino/vector.o
 .debug_frame   0x000010b8       0x74 obj_avr-zigduino/mmem.o
 .debug_frame   0x0000112c      0x180 obj_avr-zigduino/utils.o
 .debug_frame   0x000012ac       0x60 obj_avr-zigduino/hexCoding.o
 .debug_frame   0x0000130c       0x44 obj_avr-zigduino/timer_utils.o
 .debug_frame   0x00001350       0x6c obj_avr-zigduino/keyList.o
 .debug_frame   0x000013bc       0x78 obj_avr-zigduino/networking.o
 .debug_frame   0x00001434       0xd4 obj_avr-zigduino/peers.o
 .debug_frame   0x00001508      0x274 obj_avr-zigduino/smartmesh.o
 .debug_frame   0x0000177c       0x30 obj_avr-zigduino/runtime_control_local.o
 .debug_frame   0x000017ac       0x30 obj_avr-zigduino/introspection_local.o
 .debug_frame   0x000017dc      0x438 obj_avr-zigduino/reconfigurationEngine.o
 .debug_frame   0x00001c14      0x134 contiki-avr-zigduino.a(process.o)
 .debug_frame   0x00001d48      0x104 contiki-avr-zigduino.a(elfloader.o)
 .debug_frame   0x00001e4c       0x60 contiki-avr-zigduino.a(memb.o)
 .debug_frame   0x00001eac       0xfc contiki-avr-zigduino.a(list.o)
 .debug_frame   0x00001fa8      0x150 contiki-avr-zigduino.a(etimer.o)
 .debug_frame   0x000020f8       0xf8 contiki-avr-zigduino.a(ctimer.o)
 .debug_frame   0x000021f0       0x34 contiki-avr-zigduino.a(random.o)
 .debug_frame   0x00002224      0x98c contiki-avr-zigduino.a(dn_ipmt.o)
 .debug_frame   0x00002bb0       0x60 contiki-avr-zigduino.a(dn_endianness.o)
 .debug_frame   0x00002c10      0x14c contiki-avr-zigduino.a(rs232.o)
 .debug_frame   0x00002d5c       0xbc contiki-avr-zigduino.a(cfs-eeprom.o)
 .debug_frame   0x00002e18       0x34 contiki-avr-zigduino.a(eeprom.o)
 .debug_frame   0x00002e4c       0x8c contiki-avr-zigduino.a(sensors.o)
 .debug_frame   0x00002ed8       0x7c contiki-avr-zigduino.a(contiki-main.o)
 .debug_frame   0x00002f54       0x70 contiki-avr-zigduino.a(params.o)
 .debug_frame   0x00002fc4       0x44 contiki-avr-zigduino.a(button-sensor.o)
 .debug_frame   0x00003008      0x124 contiki-avr-zigduino.a(clock.o)
 .debug_frame   0x0000312c       0x64 contiki-avr-zigduino.a(watchdog.o)
 .debug_frame   0x00003190       0xc4 contiki-avr-zigduino.a(elfloader-avr.o)
 .debug_frame   0x00003254       0x44 contiki-avr-zigduino.a(symtab-avr.o)
 .debug_frame   0x00003298      0x27c contiki-avr-zigduino.a(rf230bb.o)
 .debug_frame   0x00003514      0x188 contiki-avr-zigduino.a(halbb.o)
 .debug_frame   0x0000369c       0x44 contiki-avr-zigduino.a(rimeaddr.o)
 .debug_frame   0x000036e0       0x74 contiki-avr-zigduino.a(nullmac.o)
 .debug_frame   0x00003754       0xb4 contiki-avr-zigduino.a(sicslowmac.o)
 .debug_frame   0x00003808       0x4c contiki-avr-zigduino.a(autostart.o)
 .debug_frame   0x00003854       0x50 contiki-avr-zigduino.a(serial-line.o)
 .debug_frame   0x000038a4       0x94 contiki-avr-zigduino.a(timer.o)
 .debug_frame   0x00003938       0x50 contiki-avr-zigduino.a(rtimer.o)
 .debug_frame   0x00003988       0x64 contiki-avr-zigduino.a(ringbuf.o)
 .debug_frame   0x000039ec      0x204 contiki-avr-zigduino.a(packetbuf.o)
 .debug_frame   0x00003bf0       0xf4 contiki-avr-zigduino.a(queuebuf.o)
 .debug_frame   0x00003ce4      0x124 contiki-avr-zigduino.a(sicslowpan.o)
 .debug_frame   0x00003e08      0x1b4 contiki-avr-zigduino.a(tcpip.o)
 .debug_frame   0x00003fbc      0x214 contiki-avr-zigduino.a(uip-ds6-route.o)
 .debug_frame   0x000041d0      0x150 contiki-avr-zigduino.a(uip-ds6-nbr.o)
 .debug_frame   0x00004320      0x2e8 contiki-avr-zigduino.a(uip-ds6.o)
 .debug_frame   0x00004608       0xe8 contiki-avr-zigduino.a(uip-nd6.o)
 .debug_frame   0x000046f0       0xa8 contiki-avr-zigduino.a(uip-packetqueue)
 .debug_frame   0x00004798       0x38 contiki-avr-zigduino.a(uip-split.o)
 .debug_frame   0x000047d0      0x1cc contiki-avr-zigduino.a(uip6.o)
 .debug_frame   0x0000499c       0xc0 contiki-avr-zigduino.a(dn_serial_mt.o)
 .debug_frame   0x00004a5c       0xc0 contiki-avr-zigduino.a(dn_hdlc.o)
 .debug_frame   0x00004b1c       0xd8 contiki-avr-zigduino.a(rtimer-arch.o)
 .debug_frame   0x00004bf4       0xa4 contiki-avr-zigduino.a(frame802154.o)
 .debug_frame   0x00004c98       0x50 contiki-avr-zigduino.a(framer-802154.o)
 .debug_frame   0x00004ce8       0xd4 contiki-avr-zigduino.a(stimer.o)
 .debug_frame   0x00004dbc      0x1ac contiki-avr-zigduino.a(nbr-table.o)
 .debug_frame   0x00004f68       0x90 contiki-avr-zigduino.a(uip-icmp6.o)

.debug_str      0x00000000     0x8286
 *(.debug_str)
 .debug_str     0x00000000      0x2dc loociCore.co
                                0x3f4 (size before relaxing)
 .debug_str     0x000002dc      0x1b3 obj_avr-zigduino/tempSensor.o
                                0x3ed (size before relaxing)
 .debug_str     0x0000048f       0xd4 obj_avr-zigduino/image-init.o
                                0x2e6 (size before relaxing)
 .debug_str     0x00000563      0x244 obj_avr-zigduino/codebaseDeploymentSM.o
                                0x5bb (size before relaxing)
 .debug_str     0x000007a7      0x10d obj_avr-zigduino/debug.o
                                0x2a8 (size before relaxing)
 .debug_str     0x000008b4       0x69 obj_avr-zigduino/looci.o
                                0x257 (size before relaxing)
 .debug_str     0x0000091d      0x259 obj_avr-zigduino/codebaseManager.o
                                0x530 (size before relaxing)
 .debug_str     0x00000b76      0x5bc obj_avr-zigduino/componentManager.o
                                0xa0c (size before relaxing)
 .debug_str     0x00001132       0x4c obj_avr-zigduino/comp_services.o
                                0x19d (size before relaxing)
 .debug_str     0x0000117e      0x190 obj_avr-zigduino/event.o
                                0x3cc (size before relaxing)
 .debug_str     0x0000130e      0x446 obj_avr-zigduino/eventBus.o
                                0x94c (size before relaxing)
 .debug_str     0x00001754       0xc4 obj_avr-zigduino/triggermodule.o
                                0x30d (size before relaxing)
 .debug_str     0x00001818       0x86 obj_avr-zigduino/interceptor.o
                                0x24c (size before relaxing)
 .debug_str     0x0000189e      0x11d obj_avr-zigduino/vector.o
                                0x39c (size before relaxing)
 .debug_str     0x000019bb       0x70 obj_avr-zigduino/mmem.o
                                0x20c (size before relaxing)
 .debug_str     0x00001a2b       0xf1 obj_avr-zigduino/utils.o
                                0x2ef (size before relaxing)
 .debug_str     0x00001b1c       0x3d obj_avr-zigduino/hexCoding.o
                                0x188 (size before relaxing)
 .debug_str     0x00001b59       0x76 obj_avr-zigduino/timer_utils.o
                                0x230 (size before relaxing)
 .debug_str     0x00001bcf       0x4b obj_avr-zigduino/keyList.o
                                0x183 (size before relaxing)
 .debug_str     0x00001c1a       0xf6 obj_avr-zigduino/networking.o
                                0x589 (size before relaxing)
 .debug_str     0x00001d10       0x61 obj_avr-zigduino/peers.o
                                0x2a5 (size before relaxing)
 .debug_str     0x00001d71      0x2e2 obj_avr-zigduino/smartmesh.o
                                0x942 (size before relaxing)
 .debug_str     0x00002053       0x66 obj_avr-zigduino/runtime_control_local.o
                                0x1c3 (size before relaxing)
 .debug_str     0x000020b9       0x62 obj_avr-zigduino/introspection_local.o
                                0x1c6 (size before relaxing)
 .debug_str     0x0000211b      0x3e2 obj_avr-zigduino/reconfigurationEngine.o
                                0x9e5 (size before relaxing)
 .debug_str     0x000024fd      0x141 contiki-avr-zigduino.a(process.o)
                                0x31a (size before relaxing)
 .debug_str     0x0000263e      0x3db contiki-avr-zigduino.a(elfloader.o)
                                0x695 (size before relaxing)
 .debug_str     0x00002a19       0x4d contiki-avr-zigduino.a(memb.o)
                                0x1b5 (size before relaxing)
 .debug_str     0x00002a66       0x8a contiki-avr-zigduino.a(list.o)
                                0x161 (size before relaxing)
 .debug_str     0x00002af0      0x109 contiki-avr-zigduino.a(etimer.o)
                                0x387 (size before relaxing)
 .debug_str     0x00002bf9       0xbb contiki-avr-zigduino.a(ctimer.o)
                                0x33d (size before relaxing)
 .debug_str     0x00002cb4       0x55 contiki-avr-zigduino.a(random.o)
                                0x18a (size before relaxing)
 .debug_str     0x00002d09     0x104d contiki-avr-zigduino.a(dn_ipmt.o)
                               0x16e6 (size before relaxing)
 .debug_str     0x00003d56       0x46 contiki-avr-zigduino.a(dn_endianness.o)
                                0x18a (size before relaxing)
 .debug_str     0x00003d9c      0x104 contiki-avr-zigduino.a(rs232.o)
                                0x26b (size before relaxing)
 .debug_str     0x00003ea0       0xcd contiki-avr-zigduino.a(cfs-eeprom.o)
                                0x255 (size before relaxing)
 .debug_str     0x00003f6d       0x6d contiki-avr-zigduino.a(eeprom.o)
                                0x1ad (size before relaxing)
 .debug_str     0x00003fda       0xcc contiki-avr-zigduino.a(sensors.o)
                                0x2ca (size before relaxing)
 .debug_str     0x000040a6      0x3a8 contiki-avr-zigduino.a(contiki-main.o)
                                0x6dd (size before relaxing)
 .debug_str     0x0000444e      0x15f contiki-avr-zigduino.a(params.o)
                                0x34f (size before relaxing)
 .debug_str     0x000045ad       0x62 contiki-avr-zigduino.a(button-sensor.o)
                                0x1d5 (size before relaxing)
 .debug_str     0x0000460f       0xb6 contiki-avr-zigduino.a(clock.o)
                                0x284 (size before relaxing)
 .debug_str     0x000046c5       0x5f contiki-avr-zigduino.a(watchdog.o)
                                0x17e (size before relaxing)
 .debug_str     0x00004724       0x68 contiki-avr-zigduino.a(elfloader-avr.o)
                                0x306 (size before relaxing)
 .debug_str     0x0000478c       0x2a contiki-avr-zigduino.a(symtab-avr.o)
                                0x19e (size before relaxing)
 .debug_str     0x000047b6      0x914 contiki-avr-zigduino.a(rf230bb.o)
                                0xc9c (size before relaxing)
 .debug_str     0x000050ca      0x110 contiki-avr-zigduino.a(halbb.o)
                                0x333 (size before relaxing)
 .debug_str     0x000051da       0x8d contiki-avr-zigduino.a(rimeaddr.o)
                                0x1ef (size before relaxing)
 .debug_str     0x00005267       0x6a contiki-avr-zigduino.a(nullmac.o)
                                0x259 (size before relaxing)
 .debug_str     0x000052d1      0x2d3 contiki-avr-zigduino.a(sicslowmac.o)
                                0x8f5 (size before relaxing)
 .debug_str     0x000055a4       0x50 contiki-avr-zigduino.a(autostart.o)
                                0x1f6 (size before relaxing)
 .debug_str     0x000055f4       0xb6 contiki-avr-zigduino.a(serial-line.o)
                                0x304 (size before relaxing)
 .debug_str     0x000056aa       0x3d contiki-avr-zigduino.a(timer.o)
                                0x1d5 (size before relaxing)
 .debug_str     0x000056e7       0xfc contiki-avr-zigduino.a(rtimer.o)
                                0x248 (size before relaxing)
 .debug_str     0x000057e3       0x5d contiki-avr-zigduino.a(ringbuf.o)
                                0x1dd (size before relaxing)
 .debug_str     0x00005840      0x18b contiki-avr-zigduino.a(packetbuf.o)
                                0x6ef (size before relaxing)
 .debug_str     0x000059cb      0x18c contiki-avr-zigduino.a(queuebuf.o)
                                0x76b (size before relaxing)
 .debug_str     0x00005b57      0x443 contiki-avr-zigduino.a(sicslowpan.o)
                                0xba4 (size before relaxing)
 .debug_str     0x00005f9a      0x5b2 contiki-avr-zigduino.a(tcpip.o)
                                0xac2 (size before relaxing)
 .debug_str     0x0000654c      0x395 contiki-avr-zigduino.a(uip-ds6-route.o)
                                0x8f7 (size before relaxing)
 .debug_str     0x000068e1      0x152 contiki-avr-zigduino.a(uip-ds6-nbr.o)
                                0xa6c (size before relaxing)
 .debug_str     0x00006a33      0x292 contiki-avr-zigduino.a(uip-ds6.o)
                                0x753 (size before relaxing)
 .debug_str     0x00006cc5      0x1cc contiki-avr-zigduino.a(uip-nd6.o)
                                0x871 (size before relaxing)
 .debug_str     0x00006e91       0x92 contiki-avr-zigduino.a(uip-packetqueue)
                                0x38b (size before relaxing)
 .debug_str     0x00006f23       0x74 contiki-avr-zigduino.a(uip-split.o)
                                0x29f (size before relaxing)
 .debug_str     0x00006f97      0x2d1 contiki-avr-zigduino.a(uip6.o)
                                0x94e (size before relaxing)
 .debug_str     0x00007268      0x109 contiki-avr-zigduino.a(dn_serial_mt.o)
                                0x36a (size before relaxing)
 .debug_str     0x00007371      0x123 contiki-avr-zigduino.a(dn_hdlc.o)
                                0x2d5 (size before relaxing)
 .debug_str     0x00007494       0x7a contiki-avr-zigduino.a(rtimer-arch.o)
                                0x27c (size before relaxing)
 .debug_str     0x0000750e       0xb0 contiki-avr-zigduino.a(frame802154.o)
                                0x3b5 (size before relaxing)
 .debug_str     0x000075be       0x49 contiki-avr-zigduino.a(framer-802154.o)
                                0x754 (size before relaxing)
 .debug_str     0x00007607       0x69 contiki-avr-zigduino.a(stimer.o)
                                0x1dc (size before relaxing)
 .debug_str     0x00007670      0x1ec contiki-avr-zigduino.a(nbr-table.o)
                                0x4c3 (size before relaxing)
 .debug_str     0x0000785c       0x71 contiki-avr-zigduino.a(uip-icmp6.o)
                                0x435 (size before relaxing)
 .debug_str     0x000078cd      0x9b9 /var/folders/kw/xp_j5cy50g5fm6r3w446d9rm0000gn/T//cckXVcIg.o
                                0xa8a (size before relaxing)

.debug_loc      0x00000000    0x1a8ab
 *(.debug_loc)
 .debug_loc     0x00000000      0x183 loociCore.co
 .debug_loc     0x00000183      0x1ca obj_avr-zigduino/tempSensor.o
 .debug_loc     0x0000034d       0x21 obj_avr-zigduino/image-init.o
 .debug_loc     0x0000036e      0x304 obj_avr-zigduino/codebaseDeploymentSM.o
 .debug_loc     0x00000672      0x6a6 obj_avr-zigduino/debug.o
 .debug_loc     0x00000d18      0x59a obj_avr-zigduino/codebaseManager.o
 .debug_loc     0x000012b2     0x1456 obj_avr-zigduino/componentManager.o
 .debug_loc     0x00002708      0x11f obj_avr-zigduino/comp_services.o
 .debug_loc     0x00002827      0xb99 obj_avr-zigduino/event.o
 .debug_loc     0x000033c0      0xd84 obj_avr-zigduino/eventBus.o
 .debug_loc     0x00004144       0xde obj_avr-zigduino/triggermodule.o
 .debug_loc     0x00004222      0x329 obj_avr-zigduino/interceptor.o
 .debug_loc     0x0000454b      0xb5b obj_avr-zigduino/vector.o
 .debug_loc     0x000050a6      0x15a obj_avr-zigduino/mmem.o
 .debug_loc     0x00005200      0x8b8 obj_avr-zigduino/utils.o
 .debug_loc     0x00005ab8      0x2ae obj_avr-zigduino/hexCoding.o
 .debug_loc     0x00005d66      0x257 obj_avr-zigduino/timer_utils.o
 .debug_loc     0x00005fbd      0x15b obj_avr-zigduino/keyList.o
 .debug_loc     0x00006118      0x25b obj_avr-zigduino/networking.o
 .debug_loc     0x00006373      0x33a obj_avr-zigduino/peers.o
 .debug_loc     0x000066ad      0x6ca obj_avr-zigduino/smartmesh.o
 .debug_loc     0x00006d77       0x6f obj_avr-zigduino/runtime_control_local.o
 .debug_loc     0x00006de6       0x6f obj_avr-zigduino/introspection_local.o
 .debug_loc     0x00006e55     0x1d7f obj_avr-zigduino/reconfigurationEngine.o
 .debug_loc     0x00008bd4      0x4a8 contiki-avr-zigduino.a(process.o)
 .debug_loc     0x0000907c      0xe48 contiki-avr-zigduino.a(elfloader.o)
 .debug_loc     0x00009ec4      0x17b contiki-avr-zigduino.a(memb.o)
 .debug_loc     0x0000a03f      0x472 contiki-avr-zigduino.a(list.o)
 .debug_loc     0x0000a4b1      0x57b contiki-avr-zigduino.a(etimer.o)
 .debug_loc     0x0000aa2c      0x53e contiki-avr-zigduino.a(ctimer.o)
 .debug_loc     0x0000af6a       0x26 contiki-avr-zigduino.a(random.o)
 .debug_loc     0x0000af90     0x63b2 contiki-avr-zigduino.a(dn_ipmt.o)
 .debug_loc     0x00011342       0xa7 contiki-avr-zigduino.a(dn_endianness.o)
 .debug_loc     0x000113e9      0x3fc contiki-avr-zigduino.a(rs232.o)
 .debug_loc     0x000117e5      0x2f6 contiki-avr-zigduino.a(cfs-eeprom.o)
 .debug_loc     0x00011adb      0x124 contiki-avr-zigduino.a(eeprom.o)
 .debug_loc     0x00011bff      0x2de contiki-avr-zigduino.a(sensors.o)
 .debug_loc     0x00011edd      0x171 contiki-avr-zigduino.a(contiki-main.o)
 .debug_loc     0x0001204e      0x1f0 contiki-avr-zigduino.a(params.o)
 .debug_loc     0x0001223e       0x9e contiki-avr-zigduino.a(button-sensor.o)
 .debug_loc     0x000122dc      0x2b3 contiki-avr-zigduino.a(clock.o)
 .debug_loc     0x0001258f      0x676 contiki-avr-zigduino.a(elfloader-avr.o)
 .debug_loc     0x00012c05       0xd7 contiki-avr-zigduino.a(symtab-avr.o)
 .debug_loc     0x00012cdc      0x9e4 contiki-avr-zigduino.a(rf230bb.o)
 .debug_loc     0x000136c0      0x46c contiki-avr-zigduino.a(halbb.o)
 .debug_loc     0x00013b2c       0x82 contiki-avr-zigduino.a(rimeaddr.o)
 .debug_loc     0x00013bae       0x72 contiki-avr-zigduino.a(nullmac.o)
 .debug_loc     0x00013c20      0x1d2 contiki-avr-zigduino.a(sicslowmac.o)
 .debug_loc     0x00013df2       0xaa contiki-avr-zigduino.a(autostart.o)
 .debug_loc     0x00013e9c      0x1ad contiki-avr-zigduino.a(serial-line.o)
 .debug_loc     0x00014049      0x20e contiki-avr-zigduino.a(timer.o)
 .debug_loc     0x00014257      0x149 contiki-avr-zigduino.a(rtimer.o)
 .debug_loc     0x000143a0       0xd3 contiki-avr-zigduino.a(ringbuf.o)
 .debug_loc     0x00014473      0x427 contiki-avr-zigduino.a(packetbuf.o)
 .debug_loc     0x0001489a      0x39b contiki-avr-zigduino.a(queuebuf.o)
 .debug_loc     0x00014c35      0x7a4 contiki-avr-zigduino.a(sicslowpan.o)
 .debug_loc     0x000153d9      0xaa7 contiki-avr-zigduino.a(tcpip.o)
 .debug_loc     0x00015e80      0xb00 contiki-avr-zigduino.a(uip-ds6-route.o)
 .debug_loc     0x00016980      0x4ec contiki-avr-zigduino.a(uip-ds6-nbr.o)
 .debug_loc     0x00016e6c      0xa53 contiki-avr-zigduino.a(uip-ds6.o)
 .debug_loc     0x000178bf      0x2fe contiki-avr-zigduino.a(uip-nd6.o)
 .debug_loc     0x00017bbd      0x231 contiki-avr-zigduino.a(uip-packetqueue)
 .debug_loc     0x00017dee       0xa1 contiki-avr-zigduino.a(uip-split.o)
 .debug_loc     0x00017e8f      0x7f0 contiki-avr-zigduino.a(uip6.o)
 .debug_loc     0x0001867f      0x582 contiki-avr-zigduino.a(dn_serial_mt.o)
 .debug_loc     0x00018c01      0x173 contiki-avr-zigduino.a(dn_hdlc.o)
 .debug_loc     0x00018d74      0x22a contiki-avr-zigduino.a(rtimer-arch.o)
 .debug_loc     0x00018f9e      0x7c6 contiki-avr-zigduino.a(frame802154.o)
 .debug_loc     0x00019764       0xa8 contiki-avr-zigduino.a(framer-802154.o)
 .debug_loc     0x0001980c      0x27b contiki-avr-zigduino.a(stimer.o)
 .debug_loc     0x00019a87      0xc25 contiki-avr-zigduino.a(nbr-table.o)
 .debug_loc     0x0001a6ac      0x1ff contiki-avr-zigduino.a(uip-icmp6.o)

.debug_macinfo
 *(.debug_macinfo)

.debug_pubtypes
 *(.debug_pubtypes)

.debug_ranges   0x00000000     0x1b08
 *(.debug_ranges)
 .debug_ranges  0x00000000       0x10 loociCore.co
 .debug_ranges  0x00000010       0x28 obj_avr-zigduino/tempSensor.o
 .debug_ranges  0x00000038       0x10 obj_avr-zigduino/image-init.o
 .debug_ranges  0x00000048       0x18 obj_avr-zigduino/codebaseDeploymentSM.o
 .debug_ranges  0x00000060       0x40 obj_avr-zigduino/debug.o
 .debug_ranges  0x000000a0       0x10 obj_avr-zigduino/looci.o
 .debug_ranges  0x000000b0       0x60 obj_avr-zigduino/codebaseManager.o
 .debug_ranges  0x00000110      0x158 obj_avr-zigduino/componentManager.o
 .debug_ranges  0x00000268       0x20 obj_avr-zigduino/comp_services.o
 .debug_ranges  0x00000288       0x88 obj_avr-zigduino/event.o
 .debug_ranges  0x00000310       0xd8 obj_avr-zigduino/eventBus.o
 .debug_ranges  0x000003e8       0x20 obj_avr-zigduino/triggermodule.o
 .debug_ranges  0x00000408       0x30 obj_avr-zigduino/interceptor.o
 .debug_ranges  0x00000438       0x88 obj_avr-zigduino/vector.o
 .debug_ranges  0x000004c0       0x28 obj_avr-zigduino/mmem.o
 .debug_ranges  0x000004e8       0xb8 obj_avr-zigduino/utils.o
 .debug_ranges  0x000005a0       0x18 obj_avr-zigduino/hexCoding.o
 .debug_ranges  0x000005b8       0x20 obj_avr-zigduino/timer_utils.o
 .debug_ranges  0x000005d8       0x30 obj_avr-zigduino/keyList.o
 .debug_ranges  0x00000608       0x20 obj_avr-zigduino/networking.o
 .debug_ranges  0x00000628       0x38 obj_avr-zigduino/peers.o
 .debug_ranges  0x00000660      0x118 obj_avr-zigduino/smartmesh.o
 .debug_ranges  0x00000778       0x10 obj_avr-zigduino/runtime_control_local.o
 .debug_ranges  0x00000788       0x10 obj_avr-zigduino/introspection_local.o
 .debug_ranges  0x00000798      0x158 obj_avr-zigduino/reconfigurationEngine.o
 .debug_ranges  0x000008f0       0x78 contiki-avr-zigduino.a(process.o)
 .debug_ranges  0x00000968       0x38 contiki-avr-zigduino.a(elfloader.o)
 .debug_ranges  0x000009a0       0x28 contiki-avr-zigduino.a(memb.o)
 .debug_ranges  0x000009c8       0x68 contiki-avr-zigduino.a(list.o)
 .debug_ranges  0x00000a30       0x90 contiki-avr-zigduino.a(etimer.o)
 .debug_ranges  0x00000ac0       0x40 contiki-avr-zigduino.a(ctimer.o)
 .debug_ranges  0x00000b00       0x18 contiki-avr-zigduino.a(random.o)
 .debug_ranges  0x00000b18      0x2d0 contiki-avr-zigduino.a(dn_ipmt.o)
 .debug_ranges  0x00000de8       0x28 contiki-avr-zigduino.a(dn_endianness.o)
 .debug_ranges  0x00000e10       0x50 contiki-avr-zigduino.a(rs232.o)
 .debug_ranges  0x00000e60       0x50 contiki-avr-zigduino.a(cfs-eeprom.o)
 .debug_ranges  0x00000eb0       0x18 contiki-avr-zigduino.a(eeprom.o)
 .debug_ranges  0x00000ec8       0x60 contiki-avr-zigduino.a(sensors.o)
 .debug_ranges  0x00000f28       0x28 contiki-avr-zigduino.a(contiki-main.o)
 .debug_ranges  0x00000f50       0x30 contiki-avr-zigduino.a(params.o)
 .debug_ranges  0x00000f80       0x20 contiki-avr-zigduino.a(button-sensor.o)
 .debug_ranges  0x00000fa0       0x68 contiki-avr-zigduino.a(clock.o)
 .debug_ranges  0x00001008       0x30 contiki-avr-zigduino.a(watchdog.o)
 .debug_ranges  0x00001038       0x68 contiki-avr-zigduino.a(elfloader-avr.o)
 .debug_ranges  0x000010a0       0x10 contiki-avr-zigduino.a(symtab-avr.o)
 .debug_ranges  0x000010b0      0x118 contiki-avr-zigduino.a(rf230bb.o)
 .debug_ranges  0x000011c8       0x70 contiki-avr-zigduino.a(halbb.o)
 .debug_ranges  0x00001238       0x20 contiki-avr-zigduino.a(rimeaddr.o)
 .debug_ranges  0x00001258       0x38 contiki-avr-zigduino.a(nullmac.o)
 .debug_ranges  0x00001290       0x40 contiki-avr-zigduino.a(sicslowmac.o)
 .debug_ranges  0x000012d0       0x18 contiki-avr-zigduino.a(autostart.o)
 .debug_ranges  0x000012e8       0x38 contiki-avr-zigduino.a(serial-line.o)
 .debug_ranges  0x00001320       0x30 contiki-avr-zigduino.a(timer.o)
 .debug_ranges  0x00001350       0x20 contiki-avr-zigduino.a(rtimer.o)
 .debug_ranges  0x00001370       0x30 contiki-avr-zigduino.a(ringbuf.o)
 .debug_ranges  0x000013a0       0xd0 contiki-avr-zigduino.a(packetbuf.o)
 .debug_ranges  0x00001470       0x58 contiki-avr-zigduino.a(queuebuf.o)
 .debug_ranges  0x000014c8       0x78 contiki-avr-zigduino.a(sicslowpan.o)
 .debug_ranges  0x00001540       0x98 contiki-avr-zigduino.a(tcpip.o)
 .debug_ranges  0x000015d8       0xa0 contiki-avr-zigduino.a(uip-ds6-route.o)
 .debug_ranges  0x00001678       0x70 contiki-avr-zigduino.a(uip-ds6-nbr.o)
 .debug_ranges  0x000016e8       0xc0 contiki-avr-zigduino.a(uip-ds6.o)
 .debug_ranges  0x000017a8       0x88 contiki-avr-zigduino.a(uip-nd6.o)
 .debug_ranges  0x00001830       0x40 contiki-avr-zigduino.a(uip-packetqueue)
 .debug_ranges  0x00001870       0x10 contiki-avr-zigduino.a(uip-split.o)
 .debug_ranges  0x00001880       0xa8 contiki-avr-zigduino.a(uip6.o)
 .debug_ranges  0x00001928       0x30 contiki-avr-zigduino.a(dn_serial_mt.o)
 .debug_ranges  0x00001958       0x50 contiki-avr-zigduino.a(dn_hdlc.o)
 .debug_ranges  0x000019a8       0x30 contiki-avr-zigduino.a(rtimer-arch.o)
 .debug_ranges  0x000019d8       0x28 contiki-avr-zigduino.a(frame802154.o)
 .debug_ranges  0x00001a00       0x18 contiki-avr-zigduino.a(framer-802154.o)
 .debug_ranges  0x00001a18       0x38 contiki-avr-zigduino.a(stimer.o)
 .debug_ranges  0x00001a50       0x98 contiki-avr-zigduino.a(nbr-table.o)
 .debug_ranges  0x00001ae8       0x20 contiki-avr-zigduino.a(uip-icmp6.o)

.debug_macro
 *(.debug_macro)
OUTPUT(loociCore.out elf32-avr)
LOAD linker stubs

.bootloader     0x0001f800      0x120
 .bootloader    0x0001f800      0x120 contiki-avr-zigduino.a(elfloader-avr.o)
                0x0001f800                elfloader_arch_write_rom
